(lp1
(dp2
S'ratingLastEpisode'
p3
F9.0999999999999996
sS'ratingSeries'
p4
F8.5
sS'ID'
p5
S'0285331'
p6
sS'Name'
p7
S'24'
p8
sa(dp9
g3
F9
sg4
F8.3000000000000007
sg5
S'0496424'
p10
sg7
S'30 Rock'
p11
sa(dp12
S'ratingLastEpisode'
p13
F8.5999999999999996
sS'ratingSeries'
p14
F8.5
sg5
S'0066626'
p15
sg7
S'All in the Family'
p16
sa(dp17
g13
F7.4000000000000004
sg14
F7.5999999999999996
sg5
S'0285333'
p18
sg7
S'Alias'
p19
sa(dp20
g13
F9.4000000000000004
sg14
F9.1999999999999993
sg5
S'0417299'
p21
sg7
S'Avatar: The Last Airbender'
p22
sa(dp23
g13
F7.7999999999999998
sg14
F7.0999999999999996
sg5
S'0076984'
p24
sg7
S'Battlestar Galactica (1978-1979)'
p25
sa(dp26
g13
F8.9000000000000004
sg14
F8.8000000000000007
sg5
S'0407362'
p27
sg7
S'Battlestar Galactica (2004-2009)'
p28
sa(dp29
g13
F9.3000000000000007
sg14
F9.5999999999999996
sg5
S'0185906'
p30
sg7
S'Band of Brothers'
p31
sa(dp32
g13
F9.0999999999999996
sg14
F8.6999999999999993
sg5
S'0979432'
p33
sg7
S'Boardwalk Empire'
p34
sa(dp35
g13
F9.0999999999999996
sg14
F8.0999999999999996
sg5
S'0105958'
p36
sg7
S'Boy Meets World'
p37
sa(dp38
g13
F9.9000000000000004
sg14
F9.5
sg5
S'0903747'
p39
sg7
S'Breaking Bad'
p40
sa(dp41
g13
F8.8000000000000007
sg14
F7.2999999999999998
sg5
S'0758737'
p42
sg7
S'Brothers & Sisters'
p43
sa(dp44
g13
F9.1999999999999993
sg14
F8.1999999999999993
sg5
S'0118276'
p45
sg7
S'Buffy the Vampire Slayer'
p46
sa(dp47
g13
F8.8000000000000007
sg14
F7.7999999999999998
sg5
S'0083399'
p48
sg7
S'Cheers'
p49
sa(dp50
g13
F9.1999999999999993
sg14
F8.3000000000000007
sg5
S'0934814'
p51
sg7
S'Chuck'
p52
sa(dp53
g13
F7.4000000000000004
sg14
F6.9000000000000004
sg5
S'0077000'
p54
sg7
S'Dallas (1978-1991)'
p55
sa(dp56
g13
F8.9000000000000004
sg14
F7.4000000000000004
sg5
S'0410975'
p57
sg7
S'Desperate Housewives'
p58
sa(dp59
g13
F4.7999999999999998
sg14
F8.9000000000000004
sg5
S'0773262'
p60
sg7
S'Dexter'
p61
sa(dp62
g13
F8.6999999999999993
sg14
F8.5999999999999996
sg5
S'0387199'
p63
sg7
S'Entourage'
p64
sa(dp65
g13
F9.1999999999999993
sg14
F7.7000000000000002
sg5
S'0108757'
p66
sg7
S'ER'
p67
sa(dp68
g13
F8.3000000000000007
sg14
F7.0999999999999996
sg5
S'0115167'
p69
sg7
S'Everybody Loves Raymond'
p70
sa(dp71
g13
F8.5999999999999996
sg14
F9.1999999999999993
sg5
S'0303461'
p72
sg7
S'Firefly'
p73
sa(dp74
g13
F9.1999999999999993
sg14
F8
sg5
S'0106004'
p75
sg7
S'Frasier'
p76
sa(dp77
g13
F9.5999999999999996
sg14
F9
sg5
S'0108778'
p78
sg7
S'Friends'
p79
sa(dp80
g13
F9.3000000000000007
sg14
F8.5
sg5
S'1119644'
p81
sg7
S'Fringe'
p82
sa(dp83
g13
F7.9000000000000004
sg14
F7.2000000000000002
sg5
S'0083413'
p84
sg7
S'Family Ties'
p85
sa(dp86
g13
F9.5999999999999996
sg14
F9
sg5
g78
sg7
g79
sa(dp87
g13
F7.5
sg14
F8.5999999999999996
sg5
S'0149460'
p88
sg7
S'Futurama'
p89
sa(dp90
g13
F9.1999999999999993
sg14
F6.7999999999999998
sg5
S'1327801'
p91
sg7
S'Glee'
p92
sa(dp93
g13
F7.7000000000000002
sg14
F7.7000000000000002
sg5
S'0813715'
p94
sg7
S'Heroes'
p95
sa(dp96
g13
F7.9000000000000004
sg14
F7.2000000000000002
sg5
S'0101120'
p97
sg7
S'Home Improvement'
p98
sa(dp99
g13
F9.3000000000000007
sg14
F8.9000000000000004
sg5
S'0412142'
p100
sg7
S'House M.D.'
p101
sa(dp102
g13
F5.7000000000000002
sg14
F8.5
sg5
S'0460649'
p103
sg7
S'How I Met Your Mother'
p104
sa(dp105
g13
F7.4000000000000004
sg14
F6.7999999999999998
sg5
S'0106057'
p106
sg7
S'Lois & Clark: The New Adventures of Superman'
p107
sa(dp108
g13
F8.0999999999999996
sg14
F8.5
sg5
S'0411008'
p109
sg7
S'Lost'
p110
sa(dp111
g13
F8.1999999999999993
sg14
F8.5
sg5
S'0068098'
p112
sg7
S'M*A*S*H'
p113
sa(dp114
g13
F9.3000000000000007
sg14
F8.6999999999999993
sg5
S'0804503'
p115
sg7
S'Mad Men'
p116
sa(dp117
g13
F8.8000000000000007
sg14
F7.5
sg5
S'0080240'
p118
sg7
S'Magnum, P.I.'
p119
sa(dp120
g13
F9.1999999999999993
sg14
F8
sg5
S'0212671'
p121
sg7
S'Malcolm in the Middle'
p122
sa(dp123
g13
F7.7000000000000002
sg14
F8.0999999999999996
sg5
S'0092400'
p124
sg7
S'Married with Children'
p125
sa(dp126
g13
F8.3000000000000007
sg14
F7.7999999999999998
sg5
S'0460091'
p127
sg7
S'My Name is Earl'
p128
sa(dp129
g13
F7.7000000000000002
sg14
F7.7000000000000002
sg5
S'0361217'
p130
sg7
S'Nip/Tuck'
p131
sa(dp132
g13
F9.6999999999999993
sg14
F8.5999999999999996
sg5
S'1266020'
p133
sg7
S'Parks and Recreation'
p134
sa(dp135
g13
F8.6999999999999993
sg14
F8.5
sg5
S'0455275'
p136
sg7
S'Prison Break'
p137
sa(dp138
g13
F7.5999999999999996
sg14
F8.4000000000000004
sg5
S'0491738'
p139
sg7
S'Psych'
p140
sa(dp141
g13
F9
sg14
F8.9000000000000004
sg5
S'0384766'
p142
sg7
S'Rome'
p143
sa(dp144
g13
F7.7000000000000002
sg14
F7
sg5
S'0094540'
p145
sg7
S'Roseanne'
p146
sa(dp147
g13
F6.7000000000000002
sg14
F8.5
sg5
S'0285403'
p148
sg7
S'Scrubs'
p149
sa(dp150
g13
F8.0999999999999996
sg14
F8.9000000000000004
sg5
S'0098904'
p151
sg7
S'Seinfeld'
p152
sa(dp153
g13
F8.5999999999999996
sg14
F6.9000000000000004
sg5
S'0159206'
p154
sg7
S'Sex and the City'
p155
sa(dp156
g13
F9.9000000000000004
sg14
F8.8000000000000007
sg5
S'0248654'
p157
sg7
S'Six Feet Under'
p158
sa(dp159
g13
F9.0999999999999996
sg14
F7.5
sg5
S'0279600'
p160
sg7
S'Smallville'
p161
sa(dp162
g13
F9.6999999999999993
sg14
F8.6999999999999993
sg5
S'1442449'
p163
sg7
S'Spartacus: War of the Damned'
p164
sa(dp165
g13
F5.4000000000000004
sg14
F7.5
sg5
S'0244365'
p166
sg7
S'Star Trek: Enterprise'
p167
sa(dp168
g13
F8.5
sg14
F8.6999999999999993
sg5
S'0092455'
p169
sg7
S'Star Trek: The Next Generation'
p170
sa(dp171
g13
F8.4000000000000004
sg14
F7.7000000000000002
sg5
S'0112178'
p172
sg7
S'Star Trek: Voyager'
p173
sa(dp174
g13
F8.9000000000000004
sg14
F8.5
sg5
S'0118480'
p175
sg7
S'Stargate SG-1'
p176
sa(dp177
g13
F8.6999999999999993
sg14
F8.0999999999999996
sg5
S'0374455'
p178
sg7
S'Stargate: Atlantis'
p179
sa(dp180
g13
F8.9000000000000004
sg14
F7.7000000000000002
sg5
S'1286039'
p181
sg7
S'Stargate: Universe'
p182
sa(dp183
g13
F8.9000000000000004
sg14
F8.0999999999999996
sg5
S'0165598'
p184
sg7
S"That '70s Show"
p185
sa(dp186
g13
F7.7000000000000002
sg14
F7.5
sg5
S'0086687'
p187
sg7
S'The Cosby Show'
p188
sa(dp189
g13
F8.5999999999999996
sg14
F8
sg5
S'0098800'
p190
sg7
S'The Fresh Prince of Bel-Air'
p191
sa(dp192
g13
F8.5999999999999996
sg14
F8.0999999999999996
sg5
S'0056757'
p193
sg7
S'The Fugitive'
p194
sa(dp195
g13
F6.5999999999999996
sg14
F7.5999999999999996
sg5
S'0330251'
p196
sg7
S'The L Word'
p197
sa(dp198
g13
F8.9000000000000004
sg14
F8.0999999999999996
sg5
S'1196946'
p199
sg7
S'The Mentalist'
p200
sa(dp201
g13
F9.4000000000000004
sg14
F8.6999999999999993
sg5
S'0290978'
p202
sg7
S'The Office (UK)'
p203
sa(dp204
g13
F9.6999999999999993
sg14
F8.8000000000000007
sg5
S'0386676'
p205
sg7
S'The Office (US)'
p206
sa(dp207
g13
F8.0999999999999996
sg14
F8.3000000000000007
sg5
S'0374463'
p208
sg7
S'The Pacific'
p209
sa(dp210
g13
F9.3000000000000007
sg14
F8.8000000000000007
sg5
S'0286486'
p211
sg7
S'The Shield'
p212
sa(dp213
g13
F7.0999999999999996
sg14
F9.3000000000000007
sg5
S'0141842'
p214
sg7
S'The Sopranos'
p215
sa(dp216
g13
F9.0999999999999996
sg14
F9.4000000000000004
sg5
S'0306414'
p217
sg7
S'The Wire'
p218
sa(dp219
g13
F8.4000000000000004
sg14
F8.8000000000000007
sg5
S'0106179'
p220
sg7
S'The X Files'
p221
sa(dp222
g13
F4.5999999999999996
sg14
F7.0999999999999996
sg5
S'0369179'
p223
sg7
S'Two and a Half Men'
p224
sa(dp225
g13
F7.5999999999999996
sg14
F8.0999999999999996
sg5
S'0439100'
p226
sg7
S'Weeds'
p227
sa(dp228
g13
F8.6999999999999993
sg14
F8.3000000000000007
sg5
S'1358522'
p229
sg7
S'White Collar'
p230
sa.