(lp1
(dp2
S'ratingLastEpisode'
p3
F9
sS'ratingSeries'
p4
F8.5
sS'ID'
p5
S'0285331'
p6
sS'Name'
p7
S'24'
p8
sa(dp9
g3
F8.1999999999999993
sg4
F8.5
sg5
S'0066626'
p10
sg7
S'All in the Family'
p11
sa(dp12
g3
F8.1999999999999993
sg4
F7.5999999999999996
sg5
S'0285333'
p13
sg7
S'Alias'
p14
sa(dp15
g3
F8.6999999999999993
sg4
F9.1999999999999993
sg5
S'0367279'
p16
sg7
S'Arrested Development'
p17
sa(dp18
g3
F7.9000000000000004
sg4
F7
sg5
S'0076984'
p19
sg7
S'Battlestar Galactica (1978-1979)'
p20
sa(dp21
g3
F8.8000000000000007
sg4
F8.8000000000000007
sg5
S'0407362'
p22
sg7
S'Battlestar Galactica (2004-2009)'
p23
sa(dp24
g3
F9.1999999999999993
sg4
F9.5999999999999996
sg5
S'0185906'
p25
sg7
S'Band of Brothers'
p26
sa(dp27
g3
F9.3000000000000007
sg4
F8.0999999999999996
sg5
S'0105958'
p28
sg7
S'Boy Meets World'
p29
sa(dp30
g3
F9.9000000000000004
sg4
F9.5999999999999996
sg5
S'0903747'
p31
sg7
S'Breaking Bad'
p32
sa(dp33
g3
F8.8000000000000007
sg4
F7.2000000000000002
sg5
S'0758737'
p34
sg7
S'Brothers & Sisters'
p35
sa(dp36
g3
F9
sg4
F8.1999999999999993
sg5
S'0118276'
p37
sg7
S'Buffy the Vampire Slayer'
p38
sa(dp39
g3
F8.9000000000000004
sg4
F7.9000000000000004
sg5
S'0083399'
p40
sg7
S'Cheers'
p41
sa(dp42
g3
F9.1999999999999993
sg4
F8.3000000000000007
sg5
S'0934814'
p43
sg7
S'Chuck'
p44
sa(dp45
g3
F7
sg4
F6.9000000000000004
sg5
S'0077000'
p46
sg7
S'Dallas (1978-1991)'
p47
sa(dp48
g3
F8.6999999999999993
sg4
F7.5
sg5
S'0410975'
p49
sg7
S'Desperate Housewives'
p50
sa(dp51
g3
F4.9000000000000004
sg4
F9
sg5
S'0773262'
p52
sg7
S'Dexter'
p53
sa(dp54
g3
F8.5999999999999996
sg4
F8.6999999999999993
sg5
S'0387199'
p55
sg7
S'Entourage'
p56
sa(dp57
g3
F9
sg4
F7.7000000000000002
sg5
S'0108757'
p58
sg7
S'ER'
p59
sa(dp60
g3
F8.3000000000000007
sg4
F7.2000000000000002
sg5
S'0115167'
p61
sg7
S'Everybody Loves Raymond'
p62
sa(dp63
g3
F9.0999999999999996
sg4
F8
sg5
S'0106004'
p64
sg7
S'Frasier'
p65
sa(dp66
g3
F9.5
sg4
F9
sg5
S'0108778'
p67
sg7
S'Friends'
p68
sa(dp69
g3
F9.1999999999999993
sg4
F8.5
sg5
S'1119644'
p70
sg7
S'Fringe'
p71
sa(dp72
g3
F7.9000000000000004
sg4
F7.0999999999999996
sg5
S'0083413'
p73
sg7
S'Family Ties'
p74
sa(dp75
g3
F9.5
sg4
F9
sg5
g67
sg7
g68
sa(dp76
g3
F7.7000000000000002
sg4
F8.6999999999999993
sg5
S'0149460'
p77
sg7
S'Futurama'
p78
sa(dp79
g3
F7.9000000000000004
sg4
F7.7999999999999998
sg5
S'0813715'
p80
sg7
S'Heroes'
p81
sa(dp82
g3
F8
sg4
F7.2000000000000002
sg5
S'0101120'
p83
sg7
S'Home Improvement'
p84
sa(dp85
g3
F9.1999999999999993
sg4
F8.9000000000000004
sg5
S'0412142'
p86
sg7
S'House M.D.'
p87
sa(dp88
g3
F6.0999999999999996
sg4
F8.5999999999999996
sg5
S'0460649'
p89
sg7
S'How I Met Your Mother'
p90
sa(dp91
g3
F7.2999999999999998
sg4
F6.7999999999999998
sg5
S'0106057'
p92
sg7
S'Lois & Clark: The New Adventures of Superman'
p93
sa(dp94
g3
F7.9000000000000004
sg4
F8.5999999999999996
sg5
S'0411008'
p95
sg7
S'Lost'
p96
sa(dp97
g3
F8.0999999999999996
sg4
F8.5
sg5
S'0068098'
p98
sg7
S'M*A*S*H'
p99
sa(dp100
g3
F8.1999999999999993
sg4
F7.5
sg5
S'0080240'
p101
sg7
S'Magnum, P.I.'
p102
sa(dp103
g3
F8.4000000000000004
sg4
F7.9000000000000004
sg5
S'0460091'
p104
sg7
S'My Name is Earl'
p105
sa(dp106
g3
F7.7000000000000002
sg4
F7.7999999999999998
sg5
S'0361217'
p107
sg7
S'Nip/Tuck'
p108
sa(dp109
g3
F8.6999999999999993
sg4
F8.5999999999999996
sg5
S'0455275'
p110
sg7
S'Prison Break'
p111
sa(dp112
g3
F9.8000000000000007
sg4
F8.5
sg5
S'0491738'
p113
sg7
S'Psych'
p114
sa(dp115
g3
F8
sg4
F6.9000000000000004
sg5
S'0094540'
p116
sg7
S'Roseanne'
p117
sa(dp118
g3
F6.9000000000000004
sg4
F8.5999999999999996
sg5
S'0285403'
p119
sg7
S'Scrubs'
p120
sa(dp121
g3
F8.0999999999999996
sg4
F9
sg5
S'0098904'
p122
sg7
S'Seinfeld'
p123
sa(dp124
g3
F8.5999999999999996
sg4
F6.7999999999999998
sg5
S'0159206'
p125
sg7
S'Sex and the City'
p126
sa(dp127
g3
F9.8000000000000007
sg4
F8.9000000000000004
sg5
S'0248654'
p128
sg7
S'Six Feet Under'
p129
sa(dp130
g3
F8.9000000000000004
sg4
F7.5
sg5
S'0279600'
p131
sg7
S'Smallville'
p132
sa(dp133
g3
F9.6999999999999993
sg4
F8.6999999999999993
sg5
S'1442449'
p134
sg7
S'Spartacus: War of the Damned'
p135
sa(dp136
g3
F5.4000000000000004
sg4
F7.5
sg5
S'0244365'
p137
sg7
S'Star Trek: Enterprise'
p138
sa(dp139
g3
F8.4000000000000004
sg4
F8.6999999999999993
sg5
S'0092455'
p140
sg7
S'Star Trek: The Next Generation'
p141
sa(dp142
g3
F8.4000000000000004
sg4
F7.7000000000000002
sg5
S'0112178'
p143
sg7
S'Star Trek: Voyager'
p144
sa(dp145
g3
F8.8000000000000007
sg4
F8.5
sg5
S'0118480'
p146
sg7
S'Stargate SG-1'
p147
sa(dp148
g3
F8.5999999999999996
sg4
F8.0999999999999996
sg5
S'0374455'
p149
sg7
S'Stargate: Atlantis'
p150
sa(dp151
g3
F8.8000000000000007
sg4
F7.7000000000000002
sg5
S'1286039'
p152
sg7
S'Stargate: Universe'
p153
sa(dp154
g3
F7.5999999999999996
sg4
F7.5
sg5
S'0086687'
p155
sg7
S'The Cosby Show'
p156
sa(dp157
g3
F8.5
sg4
F8.0999999999999996
sg5
S'0056757'
p158
sg7
S'The Fugitive'
p159
sa(dp160
g3
F6.7000000000000002
sg4
F7.5999999999999996
sg5
S'0330251'
p161
sg7
S'The L Word'
p162
sa(dp163
g3
F9.3000000000000007
sg4
F8.6999999999999993
sg5
S'0290978'
p164
sg7
S'The Office (UK)'
p165
sa(dp166
g3
F9.5
sg4
F8.9000000000000004
sg5
S'0386676'
p167
sg7
S'The Office (US)'
p168
sa(dp169
g3
F8.0999999999999996
sg4
F8.3000000000000007
sg5
S'0374463'
p170
sg7
S'The Pacific'
p171
sa(dp172
g3
F7.7000000000000002
sg4
F8.8000000000000007
sg5
S'0286486'
p173
sg7
S'The Shield'
p174
sa(dp175
g3
F8
sg4
F9.3000000000000007
sg5
S'0141842'
p176
sg7
S'The Sopranos'
p177
sa(dp178
g3
F9
sg4
F9.4000000000000004
sg5
S'0306414'
p179
sg7
S'The Wire'
p180
sa(dp181
g3
F8.3000000000000007
sg4
F8.8000000000000007
sg5
S'0106179'
p182
sg7
S'The X Files'
p183
sa.