(dp1
S'Smallville'
p2
(dp3
S'rating_series'
p4
F7.5
sS'id'
p5
S'0279600'
p6
sS'rating_finalepisode'
p7
F9
ssS'Desperate Housewives'
p8
(dp9
g4
F7.4000000000000004
sg5
S'0410975'
p10
sg7
F8.9000000000000004
ssS'The IT Crowd'
p11
(dp12
g4
F8.5999999999999996
sg5
S'0487831'
p13
sg7
F8.5999999999999996
ssS'Boy Meets World'
p14
(dp15
g4
F8.0999999999999996
sg5
S'0105958'
p16
sg7
F9.0999999999999996
ssS'Frasier'
p17
(dp18
g4
F8
sg5
S'0106004'
p19
sg7
F9.1999999999999993
ssS'24'
p20
(dp21
g4
F8.5
sg5
S'0285331'
p22
sg7
F9.0999999999999996
ssS'Baywatch'
p23
(dp24
g4
F5.0999999999999996
sg5
S'0096542'
p25
sg7
F6.4000000000000004
ssS'The King of Queens'
p26
(dp27
g4
F7.4000000000000004
sg5
S'0165581'
p28
sg7
F8.5999999999999996
ssS'Everybody Loves Raymond'
p29
(dp30
g4
F7.0999999999999996
sg5
S'0115167'
p31
sg7
F8.3000000000000007
ssS'Boardwalk Empire'
p32
(dp33
g4
F8.6999999999999993
sg5
S'0979432'
p34
sg7
F9
ssS'Weeds'
p35
(dp36
g4
F8.0999999999999996
sg5
S'0439100'
p37
sg7
F7.5999999999999996
ssS'Veronica Mars'
p38
(dp39
g4
F8.4000000000000004
sg5
S'0412253'
p40
sg7
F8.4000000000000004
ssS'Dallas (1978-1991)'
p41
(dp42
g4
F6.9000000000000004
sg5
S'0077000'
p43
sg7
F7.4000000000000004
ssS'Stargate: Atlantis'
p44
(dp45
g4
F8.0999999999999996
sg5
S'0374455'
p46
sg7
F8.6999999999999993
ssS'Prison Break'
p47
(dp48
g4
F8.5
sg5
S'0455275'
p49
sg7
F8.6999999999999993
ssS'Fringe'
p50
(dp51
g4
F8.5
sg5
S'1119644'
p52
sg7
F9.3000000000000007
ssS'Monk'
p53
(dp54
g4
F8
sg5
S'0312172'
p55
sg7
F9
ssS'Rome'
p56
(dp57
g4
F8.9000000000000004
sg5
S'0384766'
p58
sg7
F9
ssS'Oz'
p59
(dp60
g4
F8.9000000000000004
sg5
S'0118421'
p61
sg7
F8.5
ssS'The West Wing'
p62
(dp63
g4
F8.8000000000000007
sg5
S'0200276'
p64
sg7
F8.8000000000000007
ssS'Star Trek: Enterprise'
p65
(dp66
g4
F7.5
sg5
S'0244365'
p67
sg7
F5.4000000000000004
ssS'Entourage'
p68
(dp69
g4
F8.5999999999999996
sg5
S'0387199'
p70
sg7
F8.6999999999999993
ssS'Angel'
p71
(dp72
g4
F8
sg5
S'0162065'
p73
sg7
F9.3000000000000007
ssS'The Mentalist'
p74
(dp75
g4
F8.0999999999999996
sg5
S'1196946'
p76
sg7
F8.9000000000000004
ssS'Skins'
p77
(dp78
g4
F8.1999999999999993
sg5
S'0840196'
p79
sg7
F7.7000000000000002
ssS'Seinfeld'
p80
(dp81
g4
F8.9000000000000004
sg5
S'0098904'
p82
sg7
F8.0999999999999996
ssS'The Wire'
p83
(dp84
g4
F9.4000000000000004
sg5
S'0306414'
p85
sg7
F9
ssS'Married with Children'
p86
(dp87
g4
F8.0999999999999996
sg5
S'0092400'
p88
sg7
F7.7000000000000002
ssS'90210 (2008-2013)'
p89
(dp90
g4
F6
sg5
S'1225901'
p91
sg7
F7.2999999999999998
ssS'Glee'
p92
(dp93
g4
F6.7999999999999998
sg5
S'1327801'
p94
sg7
F9.1999999999999993
ssS'Avatar: The Last Airbender'
p95
(dp96
g4
F9.1999999999999993
sg5
S'0417299'
p97
sg7
F9.3000000000000007
ssS'How I Met Your Mother'
p98
(dp99
g4
F8.5
sg5
S'0460649'
p100
sg7
F5.7000000000000002
ssS'Firefly'
p101
(dp102
g4
F9.1999999999999993
sg5
S'0303461'
p103
sg7
F8.5999999999999996
ssS'Home Improvement'
p104
(dp105
g4
F7.2000000000000002
sg5
S'0101120'
p106
sg7
F7.9000000000000004
ssS'Futurama'
p107
(dp108
g4
F8.5999999999999996
sg5
S'0149460'
p109
sg7
F7.5
ssS'Stargate SG-1'
p110
(dp111
g4
F8.5
sg5
S'0118480'
p112
sg7
F8.9000000000000004
ssS'30 Rock'
p113
(dp114
g4
F8.3000000000000007
sg5
S'0496424'
p115
sg7
F9
ssS'Spartacus: War of the Damned'
p116
(dp117
g4
F8.6999999999999993
sg5
S'1442449'
p118
sg7
F9.6999999999999993
ssS'Star Trek: Deep Space Nine'
p119
(dp120
g4
F7.9000000000000004
sg5
S'0106145'
p121
sg7
F8.5
ssS'The X Files'
p122
(dp123
g4
F8.8000000000000007
sg5
S'0106179'
p124
sg7
F8.5
ssS'Battlestar Galactica (1978-1979)'
p125
(dp126
g4
F7.0999999999999996
sg5
S'0076984'
p127
sg7
F7.7999999999999998
ssS'Jericho'
p128
(dp129
g4
F8
sg5
S'0805663'
p130
sg7
F8.6999999999999993
ssS'My Name is Earl'
p131
(dp132
g4
F7.7999999999999998
sg5
S'0460091'
p133
sg7
F8.3000000000000007
ssS'Burn Notice'
p134
(dp135
g4
F8
sg5
S'0810788'
p136
sg7
F9
ssS'Mad Men'
p137
(dp138
g4
F8.6999999999999993
sg5
S'0804503'
p139
sg7
F9.3000000000000007
ssS'Magnum, P.I.'
p140
(dp141
g4
F7.5
sg5
S'0080240'
p142
sg7
F8.8000000000000007
ssS'Revolution'
p143
(dp144
g4
F6.7000000000000002
sg5
S'2070791'
p145
sg7
F8.3000000000000007
ssS'Flashforward'
p146
(dp147
g4
F7.5999999999999996
sg5
S'1441135'
p148
sg7
F8.8000000000000007
ssS'The Following'
p149
(dp150
g4
F7.5
sg5
S'2071645'
p151
sg7
F8.3000000000000007
ssS'Breaking Bad'
p152
(dp153
g4
F9.5
sg5
S'0903747'
p154
sg7
F9.9000000000000004
ssS'Scrubs (S8 finale)'
p155
(dp156
g4
F8.5
sg5
S'0285403'
p157
sg7
F9.5999999999999996
ssS'M*A*S*H'
p158
(dp159
g4
F8.5
sg5
S'0068098'
p160
sg7
F8.1999999999999993
ssS'The Newsroom'
p161
(dp162
g4
F8.5999999999999996
sg5
S'1870479'
p163
sg7
F9
ssS'Dexter'
p164
(dp165
g4
F8.9000000000000004
sg5
S'0773262'
p166
sg7
F4.7999999999999998
ssS'Two and a Half Men'
p167
(dp168
g4
F7.0999999999999996
sg5
S'0369179'
p169
sg7
F4.5999999999999996
ssS'Merlin'
p170
(dp171
g4
F7.9000000000000004
sg5
S'1199099'
p172
sg7
F8.1999999999999993
ssS'Beverly Hills, 90210 (1990-2000)'
p173
(dp174
g4
F6.2000000000000002
sg5
S'0098749'
p175
sg7
F7.5
ssS'Stargate: Universe'
p176
(dp177
g4
F7.7000000000000002
sg5
S'1286039'
p178
sg7
F8.9000000000000004
ssS'Cheers'
p179
(dp180
g4
F7.7999999999999998
sg5
S'0083399'
p181
sg7
F8.8000000000000007
ssS'The Pacific'
p182
(dp183
g4
F8.3000000000000007
sg5
S'0374463'
p184
sg7
F8.0999999999999996
ssS'Lois & Clark: The New Adventures of Superman'
p185
(dp186
g4
F6.7999999999999998
sg5
S'0106057'
p187
sg7
F7.4000000000000004
ssS'All in the Family'
p188
(dp189
g4
F8.5
sg5
S'0066626'
p190
sg7
F8.5999999999999996
ssS'Band of Brothers'
p191
(dp192
g4
F9.5999999999999996
sg5
S'0185906'
p193
sg7
F9.3000000000000007
ssS'Six Feet Under'
p194
(dp195
g4
F8.8000000000000007
sg5
S'0248654'
p196
sg7
F9.8000000000000007
ssS'True Blood'
p197
(dp198
g4
F8
sg5
S'0844441'
p199
sg7
F5.0999999999999996
ssS'Deadwood'
p200
(dp201
g4
F8.8000000000000007
sg5
S'0348914'
p202
sg7
F8.5999999999999996
ssS'Family Ties'
p203
(dp204
g4
F7.2000000000000002
sg5
S'0083413'
p205
sg7
F7.9000000000000004
ssS'Battlestar Galactica (2004-2009)'
p206
(dp207
g4
F8.8000000000000007
sg5
S'0407362'
p208
sg7
F8.9000000000000004
ssS'ER'
p209
(dp210
g4
F7.7000000000000002
sg5
S'0108757'
p211
sg7
F9.1999999999999993
ssS'Charmed'
p212
(dp213
g4
F7
sg5
S'0158552'
p214
sg7
F9
ssS'Chuck'
p215
(dp216
g4
F8.3000000000000007
sg5
S'0934814'
p217
sg7
F9.0999999999999996
ssS'Misfits'
p218
(dp219
g4
F8.4000000000000004
sg5
S'1548850'
p220
sg7
F6.9000000000000004
ssS'Star Trek: Voyager'
p221
(dp222
g4
F7.7000000000000002
sg5
S'0112178'
p223
sg7
F8.4000000000000004
ssS'Nip/Tuck'
p224
(dp225
g4
F7.7000000000000002
sg5
S'0361217'
p226
sg7
F7.7000000000000002
ssS'Gilmore Girls'
p227
(dp228
g4
F8
sg5
S'0238784'
p229
sg7
F9.0999999999999996
ssS'Mr. Bean'
p230
(dp231
g4
F8.5999999999999996
sg5
S'0096657'
p232
sg7
F8.0999999999999996
ssS'Sons of Anarchy'
p233
(dp234
g4
F8.6999999999999993
sg5
S'1124373'
p235
sg7
F9
ssS'Brothers & Sisters'
p236
(dp237
g4
F7.2999999999999998
sg5
S'0758737'
p238
sg7
F8.5999999999999996
ssS'Heroes'
p239
(dp240
g4
F7.7000000000000002
sg5
S'0813715'
p241
sg7
F7.7000000000000002
ssS'Star Trek: The Next Generation'
p242
(dp243
g4
F8.6999999999999993
sg5
S'0092455'
p244
sg7
F8.5
ssS'The Fugitive'
p245
(dp246
g4
F8.0999999999999996
sg5
S'0056757'
p247
sg7
F8.5999999999999996
ssS'Newhart'
p248
(dp249
g4
F7.7999999999999998
sg5
S'0083455'
p250
sg7
F9.5
ssS'White Collar'
p251
(dp252
g4
F8.3000000000000007
sg5
S'1358522'
p253
sg7
F8.6999999999999993
ssS'Dragon Ball Z'
p254
(dp255
g4
F8.9000000000000004
sg5
S'0214341'
p256
sg7
F4.7000000000000002
ssS'Justified'
p257
(dp258
g4
F8.6999999999999993
sg5
S'1489428'
p259
sg7
F9.0999999999999996
ssS'Roseanne'
p260
(dp261
g4
F7
sg5
S'0094540'
p262
sg7
F7.7000000000000002
ssS'Malcolm in the Middle'
p263
(dp264
g4
F8
sg5
S'0212671'
p265
sg7
F9.1999999999999993
ssS'The Fresh Prince of Bel-Air'
p266
(dp267
g4
F8
sg5
S'0098800'
p268
sg7
F8.5999999999999996
ssS'The Office (UK)'
p269
(dp270
g4
F8.6999999999999993
sg5
S'0290978'
p271
sg7
F9.4000000000000004
ssS'The Killing'
p272
(dp273
g4
F8.1999999999999993
sg5
S'1637727'
p274
sg7
F9.0999999999999996
ssS'The L Word'
p275
(dp276
g4
F7.5999999999999996
sg5
S'0330251'
p277
sg7
F6.5999999999999996
ssS'Friends'
p278
(dp279
g4
F9
sg5
S'0108778'
p280
sg7
F9.5999999999999996
ssS'One Tree Hill'
p281
(dp282
g4
F7.7000000000000002
sg5
S'0368530'
p283
sg7
F8.3000000000000007
ssS'Parks and Recreation'
p284
(dp285
g4
F8.5999999999999996
sg5
S'1266020'
p286
sg7
F9.6999999999999993
ssS"That '70s Show"
p287
(dp288
g4
F8.0999999999999996
sg5
S'0165598'
p289
sg7
F8.9000000000000004
ssS'Lost'
p290
(dp291
g4
F8.5
sg5
S'0411008'
p292
sg7
F8.0999999999999996
ssS'The Cosby Show'
p293
(dp294
g4
F7.5
sg5
S'0086687'
p295
sg7
F7.7999999999999998
ssS'The O.C.'
p296
(dp297
g4
F7.5
sg5
S'0362359'
p298
sg7
F9
ssS'House M.D.'
p299
(dp300
g4
F8.9000000000000004
sg5
S'0412142'
p301
sg7
F9.3000000000000007
ssS'Alias'
p302
(dp303
g4
F7.5999999999999996
sg5
S'0285333'
p304
sg7
F7.4000000000000004
ssS'Scrubs (S9 finale)'
p305
(dp306
g4
F8.5
sg5
g157
sg7
F6.7000000000000002
ssS'The Shield'
p307
(dp308
g4
F8.8000000000000007
sg5
S'0286486'
p309
sg7
F9.1999999999999993
ssS'Sex and the City'
p310
(dp311
g4
F6.9000000000000004
sg5
S'0159206'
p312
sg7
F8.5999999999999996
ssS'Psych'
p313
(dp314
g4
F8.4000000000000004
sg5
S'0491738'
p315
sg7
F9
ssS'The Office (US)'
p316
(dp317
g4
F8.8000000000000007
sg5
S'0386676'
p318
sg7
F9.6999999999999993
ssS'The Sopranos'
p319
(dp320
g4
F9.3000000000000007
sg5
S'0141842'
p321
sg7
F7.0999999999999996
ssS'Buffy the Vampire Slayer'
p322
(dp323
g4
F8.1999999999999993
sg5
S'0118276'
p324
sg7
F9.0999999999999996
ss.