(dp1
S'Smallville'
p2
(dp3
S'rating_series'
p4
F7.5
sS'id'
p5
S'0279600'
p6
sS'rating_finalepisode'
p7
F9.0999999999999996
ssS'Desperate Housewives'
p8
(dp9
g4
F7.4000000000000004
sg5
S'0410975'
p10
sg7
F8.9000000000000004
ssS'The IT Crowd'
p11
(dp12
g4
F8.5999999999999996
sg5
S'0487831'
p13
sg7
F8.5999999999999996
ssS'Boy Meets World'
p14
(dp15
g4
F8.0999999999999996
sg5
S'0105958'
p16
sg7
F9.1999999999999993
ssS'Frasier'
p17
(dp18
g4
F8
sg5
S'0106004'
p19
sg7
F9.1999999999999993
ssS'24'
p20
(dp21
g4
F8.5
sg5
S'0285331'
p22
sg7
F9.0999999999999996
ssS'Baywatch'
p23
(dp24
g4
F5.0999999999999996
sg5
S'0096542'
p25
sg7
F6.2999999999999998
ssS'The King of Queens'
p26
(dp27
g4
F7.4000000000000004
sg5
S'0165581'
p28
sg7
F8.5999999999999996
ssS'Everybody Loves Raymond'
p29
(dp30
g4
F7.0999999999999996
sg5
S'0115167'
p31
sg7
F8.3000000000000007
ssS'Boardwalk Empire'
p32
(dp33
g4
F8.5999999999999996
sg5
S'0979432'
p34
sg7
F8
ssS'Weeds'
p35
(dp36
g4
F8.0999999999999996
sg5
S'0439100'
p37
sg7
F7.5999999999999996
ssS'Veronica Mars'
p38
(dp39
g4
F8.4000000000000004
sg5
S'0412253'
p40
sg7
F8.5
ssS'Dallas (1978-1991)'
p41
(dp42
g4
F6.9000000000000004
sg5
S'0077000'
p43
sg7
F7.2000000000000002
ssS'Stargate: Atlantis'
p44
(dp45
g4
F8.0999999999999996
sg5
S'0374455'
p46
sg7
F8.6999999999999993
ssS'Prison Break'
p47
(dp48
g4
F8.5
sg5
S'0455275'
p49
sg7
F8.6999999999999993
ssS'Fringe'
p50
(dp51
g4
F8.5
sg5
S'1119644'
p52
sg7
F9.3000000000000007
ssS'Monk'
p53
(dp54
g4
F8
sg5
S'0312172'
p55
sg7
F9
ssS'Rome'
p56
(dp57
g4
F8.9000000000000004
sg5
S'0384766'
p58
sg7
F9
ssS'Oz'
p59
(dp60
g4
F8.9000000000000004
sg5
S'0118421'
p61
sg7
F8.5999999999999996
ssS'The West Wing'
p62
(dp63
g4
F8.8000000000000007
sg5
S'0200276'
p64
sg7
F8.8000000000000007
ssS'Star Trek: Enterprise'
p65
(dp66
g4
F7.5
sg5
S'0244365'
p67
sg7
F5.4000000000000004
ssS'Entourage'
p68
(dp69
g4
F8.5999999999999996
sg5
S'0387199'
p70
sg7
F8.6999999999999993
ssS'Angel'
p71
(dp72
g4
F8
sg5
S'0162065'
p73
sg7
F9.4000000000000004
ssS'The Mentalist'
p74
(dp75
g4
F8.0999999999999996
sg5
S'1196946'
p76
sg7
F8.9000000000000004
ssS'Skins'
p77
(dp78
g4
F8.1999999999999993
sg5
S'0840196'
p79
sg7
F7.7999999999999998
ssS'Seinfeld'
p80
(dp81
g4
F8.9000000000000004
sg5
S'0098904'
p82
sg7
F8.0999999999999996
ssS'The Wire'
p83
(dp84
g4
F9.3000000000000007
sg5
S'0306414'
p85
sg7
F9
ssS'Married with Children'
p86
(dp87
g4
F8.0999999999999996
sg5
S'0092400'
p88
sg7
F7.7999999999999998
ssS'90210 (2008-2013)'
p89
(dp90
g4
F6.0999999999999996
sg5
S'1225901'
p91
sg7
F7.2999999999999998
ssS'Glee'
p92
(dp93
g4
F6.7000000000000002
sg5
S'1327801'
p94
sg7
F9.1999999999999993
ssS'Avatar: The Last Airbender'
p95
(dp96
g4
F9.1999999999999993
sg5
S'0417299'
p97
sg7
F9.5
ssS'How I Met Your Mother'
p98
(dp99
g4
F8.4000000000000004
sg5
S'0460649'
p100
sg7
F5.7000000000000002
ssS'Firefly'
p101
(dp102
g4
F9.0999999999999996
sg5
S'0303461'
p103
sg7
F8.5999999999999996
ssS'Home Improvement'
p104
(dp105
g4
F7.2000000000000002
sg5
S'0101120'
p106
sg7
F7.9000000000000004
ssS'Futurama'
p107
(dp108
g4
F8.5999999999999996
sg5
S'0149460'
p109
sg7
F7.5
ssS'Stargate SG-1'
p110
(dp111
S'rating_series'
p112
F8.4000000000000004
sg5
S'0118480'
p113
sS'rating_finalepisode'
p114
F8.9000000000000004
ssS'30 Rock'
p115
(dp116
g112
F8.1999999999999993
sg5
S'0496424'
p117
sg114
F9.0999999999999996
ssS'Spartacus: War of the Damned'
p118
(dp119
g112
F8.5999999999999996
sg5
S'1442449'
p120
sg114
F9.6999999999999993
ssS'Star Trek: Deep Space Nine'
p121
(dp122
g112
F7.9000000000000004
sg5
S'0106145'
p123
sg114
F8.5
ssS'The X Files'
p124
(dp125
g112
F8.6999999999999993
sg5
S'0106179'
p126
sg114
F8.5
ssS'Battlestar Galactica (1978-1979)'
p127
(dp128
g112
F7.0999999999999996
sg5
S'0076984'
p129
sg114
F7.7999999999999998
ssS'Jericho'
p130
(dp131
g112
F8
sg5
S'0805663'
p132
sg114
F8.5999999999999996
ssS'My Name is Earl'
p133
(dp134
g112
F7.7999999999999998
sg5
S'0460091'
p135
sg114
F8.3000000000000007
ssS'Burn Notice'
p136
(dp137
S'rating_series'
p138
F8
sg5
S'0810788'
p139
sS'rating_finalepisode'
p140
F8.9000000000000004
ssS'Mad Men'
p141
(dp142
S'rating_series'
p143
F8.6999999999999993
sg5
S'0804503'
p144
sS'rating_finalepisode'
p145
F9.3000000000000007
ssS'Magnum, P.I.'
p146
(dp147
g143
F7.5
sg5
S'0080240'
p148
sg145
F8.8000000000000007
ssS'Revolution'
p149
(dp150
g143
F6.7000000000000002
sg5
S'2070791'
p151
sg145
F8.3000000000000007
ssS'Flashforward'
p152
(dp153
g143
F7.5999999999999996
sg5
S'1441135'
p154
sg145
F8.8000000000000007
ssS'The Following'
p155
(dp156
g143
F7.5
sg5
S'2071645'
p157
sg145
F8.1999999999999993
ssS'Breaking Bad'
p158
(dp159
g143
F9.5
sg5
S'0903747'
p160
sg145
F9.8000000000000007
ssS'Scrubs (S8 finale)'
p161
(dp162
g143
F8.5
sg5
S'0285403'
p163
sg145
F9.6999999999999993
ssS'M*A*S*H'
p164
(dp165
g143
F8.4000000000000004
sg5
S'0068098'
p166
sg145
F8.1999999999999993
ssS'The Newsroom'
p167
(dp168
g143
F8.5999999999999996
sg5
S'1870479'
p169
sg145
F9.0999999999999996
ssS'Dexter'
p170
(dp171
g143
F8.9000000000000004
sg5
S'0773262'
p172
sg145
F4.7999999999999998
ssS'Two and a Half Men'
p173
(dp174
g143
F7.0999999999999996
sg5
S'0369179'
p175
sg145
F4.5999999999999996
ssS'Merlin'
p176
(dp177
g143
F7.9000000000000004
sg5
S'1199099'
p178
sg145
F8.1999999999999993
ssS'Beverly Hills, 90210 (1990-2000)'
p179
(dp180
g143
F6.2000000000000002
sg5
S'0098749'
p181
sg145
F7.5
ssS'Stargate: Universe'
p182
(dp183
g143
F7.7000000000000002
sg5
S'1286039'
p184
sg145
F8.9000000000000004
ssS'Cheers'
p185
(dp186
g143
F7.7999999999999998
sg5
S'0083399'
p187
sg145
F8.4000000000000004
ssS'The Pacific'
p188
(dp189
g143
F8.3000000000000007
sg5
S'0374463'
p190
sg145
F8.0999999999999996
ssS'Lois & Clark: The New Adventures of Superman'
p191
(dp192
g143
F6.7999999999999998
sg5
S'0106057'
p193
sg145
F7.5
ssS'All in the Family'
p194
(dp195
g143
F8.4000000000000004
sg5
S'0066626'
p196
sg145
F8.5999999999999996
ssS'Band of Brothers'
p197
(dp198
g143
F9.5999999999999996
sg5
S'0185906'
p199
sg145
F9.3000000000000007
ssS'Six Feet Under'
p200
(dp201
g143
F8.8000000000000007
sg5
S'0248654'
p202
sg145
F9.9000000000000004
ssS'True Blood'
p203
(dp204
g143
F8
sg5
S'0844441'
p205
sg145
F5.2000000000000002
ssS'Deadwood'
p206
(dp207
g143
F8.8000000000000007
sg5
S'0348914'
p208
sg145
F8.5999999999999996
ssS'Family Ties'
p209
(dp210
g143
F7.2000000000000002
sg5
S'0083413'
p211
sg145
F8
ssS'Battlestar Galactica (2004-2009)'
p212
(dp213
g143
F8.8000000000000007
sg5
S'0407362'
p214
sg145
F8.9000000000000004
ssS'ER'
p215
(dp216
g143
F7.7000000000000002
sg5
S'0108757'
p217
sg145
F9.1999999999999993
ssS'Charmed'
p218
(dp219
g143
F7
sg5
S'0158552'
p220
sg145
F9.0999999999999996
ssS'Chuck'
p221
(dp222
g143
F8.1999999999999993
sg5
S'0934814'
p223
sg145
F9.1999999999999993
ssS'Misfits'
p224
(dp225
g143
F8.3000000000000007
sg5
S'1548850'
p226
sg145
F6.9000000000000004
ssS'Star Trek: Voyager'
p227
(dp228
g143
F7.7000000000000002
sg5
S'0112178'
p229
sg145
F8.4000000000000004
ssS'Nip/Tuck'
p230
(dp231
g143
F7.7000000000000002
sg5
S'0361217'
p232
sg145
F7.7000000000000002
ssS'Gilmore Girls'
p233
(dp234
g143
F8
sg5
S'0238784'
p235
sg145
F9.0999999999999996
ssS'Mr. Bean'
p236
(dp237
g143
F8.5999999999999996
sg5
S'0096657'
p238
sg145
F8.1999999999999993
ssS'Sons of Anarchy'
p239
(dp240
g143
F8.6999999999999993
sg5
S'1124373'
p241
sg145
F9
ssS'Brothers & Sisters'
p242
(dp243
g143
F7.2999999999999998
sg5
S'0758737'
p244
sg145
F8.6999999999999993
ssS'Heroes'
p245
(dp246
g143
F7.7000000000000002
sg5
S'0813715'
p247
sg145
F7.7000000000000002
ssS'Star Trek: The Next Generation'
p248
(dp249
g143
F8.6999999999999993
sg5
S'0092455'
p250
sg145
F8.5
ssS'The Fugitive'
p251
(dp252
g143
F8.0999999999999996
sg5
S'0056757'
p253
sg145
F8.5999999999999996
ssS'Newhart'
p254
(dp255
g143
F7.7999999999999998
sg5
S'0083455'
p256
sg145
F9.5999999999999996
ssS'White Collar'
p257
(dp258
g143
F8.3000000000000007
sg5
S'1358522'
p259
sg145
F8.8000000000000007
ssS'Dragon Ball Z'
p260
(dp261
g143
F8.9000000000000004
sg5
S'0214341'
p262
sg145
F4.2000000000000002
ssS'Justified'
p263
(dp264
g143
F8.6999999999999993
sg5
S'1489428'
p265
sg145
F9
ssS'Roseanne'
p266
(dp267
g143
F7
sg5
S'0094540'
p268
sg145
F7.7000000000000002
ssS'Malcolm in the Middle'
p269
(dp270
g143
F8
sg5
S'0212671'
p271
sg145
F9.1999999999999993
ssS'The Fresh Prince of Bel-Air'
p272
(dp273
g143
F8
sg5
S'0098800'
p274
sg145
F8.5999999999999996
ssS'The Office (UK)'
p275
(dp276
g143
F8.5999999999999996
sg5
S'0290978'
p277
sg145
F9.4000000000000004
ssS'The Killing'
p278
(dp279
g143
F8.1999999999999993
sg5
S'1637727'
p280
sg145
F9
ssS'The L Word'
p281
(dp282
g143
F7.5999999999999996
sg5
S'0330251'
p283
sg145
F6.5999999999999996
ssS'Friends'
p284
(dp285
g143
F9
sg5
S'0108778'
p286
sg145
F9.5999999999999996
ssS'One Tree Hill'
p287
(dp288
g143
F7.7000000000000002
sg5
S'0368530'
p289
sg145
F8.4000000000000004
ssS'Parks and Recreation'
p290
(dp291
g143
F8.5999999999999996
sg5
S'1266020'
p292
sg145
F9.6999999999999993
ssS"That '70s Show"
p293
(dp294
g143
F8.0999999999999996
sg5
S'0165598'
p295
sg145
F8.9000000000000004
ssS'Lost'
p296
(dp297
g143
F8.5
sg5
S'0411008'
p298
sg145
F8.0999999999999996
ssS'The Cosby Show'
p299
(dp300
g143
F7.5
sg5
S'0086687'
p301
sg145
F7.7999999999999998
ssS'The O.C.'
p302
(dp303
g143
F7.5
sg5
S'0362359'
p304
sg145
F9
ssS'House M.D.'
p305
(dp306
g143
F8.9000000000000004
sg5
S'0412142'
p307
sg145
F9.3000000000000007
ssS'Alias'
p308
(dp309
g143
F7.5999999999999996
sg5
S'0285333'
p310
sg145
F7.4000000000000004
ssS'Scrubs (S9 finale)'
p311
(dp312
g143
F8.5
sg5
g163
sg145
F6.5999999999999996
ssS'The Shield'
p313
(dp314
g143
F8.8000000000000007
sg5
S'0286486'
p315
sg145
F9.3000000000000007
ssS'Sex and the City'
p316
(dp317
g143
F6.9000000000000004
sg5
S'0159206'
p318
sg145
F8.5999999999999996
ssS'Psych'
p319
(dp320
g143
F8.4000000000000004
sg5
S'0491738'
p321
sg145
F9
ssS'The Office (US)'
p322
(dp323
g143
F8.8000000000000007
sg5
S'0386676'
p324
sg145
F9.6999999999999993
ssS'The Sopranos'
p325
(dp326
g143
F9.1999999999999993
sg5
S'0141842'
p327
sg145
F7.0999999999999996
ssS'Buffy the Vampire Slayer'
p328
(dp329
g143
F8.1999999999999993
sg5
S'0118276'
p330
sg145
F9.1999999999999993
ss.