(dp1
S'Smallville'
p2
(dp3
S'ratingLastEpisode'
p4
F9.0999999999999996
sS'ratingSeries'
p5
F7.5
sS'id'
p6
S'0279600'
p7
sS'name'
p8
S'Smallville'
p9
ssS'Desperate Housewives'
p10
(dp11
g4
F8.9000000000000004
sg5
F7.4000000000000004
sg6
S'0410975'
p12
sg8
S'Desperate Housewives'
p13
ssS'The IT Crowd'
p14
(dp15
S'ratingLastEpisode'
p16
F8.5999999999999996
sS'ratingSeries'
p17
F8.5999999999999996
sg6
S'0487831'
p18
sg8
S'The IT Crowd'
p19
ssS'Boy Meets World'
p20
(dp21
g16
F9.0999999999999996
sg17
F8.0999999999999996
sg6
S'0105958'
p22
sg8
S'Boy Meets World'
p23
ssS'Frasier'
p24
(dp25
g16
F9.1999999999999993
sg17
F8
sg6
S'0106004'
p26
sg8
S'Frasier'
p27
ssS'24'
p28
(dp29
g16
F9.0999999999999996
sg17
F8.5
sg6
S'0285331'
p30
sg8
S'24'
p31
ssS'Baywatch'
p32
(dp33
g16
F6.4000000000000004
sg17
F5.0999999999999996
sg6
S'0096542'
p34
sg8
S'Baywatch'
p35
ssS'The King of Queens'
p36
(dp37
g16
F8.5999999999999996
sg17
F7.4000000000000004
sg6
S'0165581'
p38
sg8
S'The King of Queens'
p39
ssS'Everybody Loves Raymond'
p40
(dp41
g16
F8.3000000000000007
sg17
F7.0999999999999996
sg6
S'0115167'
p42
sg8
S'Everybody Loves Raymond'
p43
ssS'Boardwalk Empire'
p44
(dp45
g16
F9.0999999999999996
sg17
F8.6999999999999993
sg6
S'0979432'
p46
sg8
S'Boardwalk Empire'
p47
ssS'Weeds'
p48
(dp49
g16
F7.5999999999999996
sg17
F8.0999999999999996
sg6
S'0439100'
p50
sg8
S'Weeds'
p51
ssS'Veronica Mars'
p52
(dp53
g16
F8.4000000000000004
sg17
F8.4000000000000004
sg6
S'0412253'
p54
sg8
S'Veronica Mars'
p55
ssS'Dallas (1978-1991)'
p56
(dp57
g16
F7.4000000000000004
sg17
F6.9000000000000004
sg6
S'0077000'
p58
sg8
S'Dallas (1978-1991)'
p59
ssS'Stargate: Atlantis'
p60
(dp61
g16
F8.6999999999999993
sg17
F8.0999999999999996
sg6
S'0374455'
p62
sg8
S'Stargate: Atlantis'
p63
ssS'Prison Break'
p64
(dp65
g16
F8.6999999999999993
sg17
F8.5
sg6
S'0455275'
p66
sg8
S'Prison Break'
p67
ssS'Fringe'
p68
(dp69
g16
F9.3000000000000007
sg17
F8.5
sg6
S'1119644'
p70
sg8
S'Fringe'
p71
ssS'Monk'
p72
(dp73
g16
F9
sg17
F8
sg6
S'0312172'
p74
sg8
S'Monk'
p75
ssS'Rome'
p76
(dp77
g16
F9
sg17
F8.9000000000000004
sg6
S'0384766'
p78
sg8
S'Rome'
p79
ssS'Oz'
p80
(dp81
g16
F8.5
sg17
F8.9000000000000004
sg6
S'0118421'
p82
sg8
S'Oz'
p83
ssS'The West Wing'
p84
(dp85
g16
F8.8000000000000007
sg17
F8.8000000000000007
sg6
S'0200276'
p86
sg8
S'The West Wing'
p87
ssS'Star Trek: Enterprise'
p88
(dp89
g16
F5.4000000000000004
sg17
F7.5
sg6
S'0244365'
p90
sg8
S'Star Trek: Enterprise'
p91
ssS'Entourage'
p92
(dp93
g16
F8.6999999999999993
sg17
F8.5999999999999996
sg6
S'0387199'
p94
sg8
S'Entourage'
p95
ssS'Angel'
p96
(dp97
g16
F9.4000000000000004
sg17
F8
sg6
S'0162065'
p98
sg8
S'Angel'
p99
ssS'The Mentalist'
p100
(dp101
g16
F8.9000000000000004
sg17
F8.0999999999999996
sg6
S'1196946'
p102
sg8
S'The Mentalist'
p103
ssS'Skins'
p104
(dp105
g16
F7.7000000000000002
sg17
F8.1999999999999993
sg6
S'0840196'
p106
sg8
S'Skins'
p107
ssS'Seinfeld'
p108
(dp109
g16
F8.0999999999999996
sg17
F8.9000000000000004
sg6
S'0098904'
p110
sg8
S'Seinfeld'
p111
ssS'The Wire'
p112
(dp113
g16
F9.0999999999999996
sg17
F9.4000000000000004
sg6
S'0306414'
p114
sg8
S'The Wire'
p115
ssS'Married with Children'
p116
(dp117
g16
F7.7000000000000002
sg17
F8.0999999999999996
sg6
S'0092400'
p118
sg8
S'Married with Children'
p119
ssS'90210 (2008-2013)'
p120
(dp121
g16
F7.2999999999999998
sg17
F6
sg6
S'1225901'
p122
sg8
S'90210 (2008-2013)'
p123
ssS'Glee'
p124
(dp125
g16
F9.1999999999999993
sg17
F6.7999999999999998
sg6
S'1327801'
p126
sg8
S'Glee'
p127
ssS'Avatar: The Last Airbender'
p128
(dp129
g16
F9.4000000000000004
sg17
F9.1999999999999993
sg6
S'0417299'
p130
sg8
S'Avatar: The Last Airbender'
p131
ssS'How I Met Your Mother'
p132
(dp133
g16
F5.7000000000000002
sg17
F8.5
sg6
S'0460649'
p134
sg8
S'How I Met Your Mother'
p135
ssS'Firefly'
p136
(dp137
g16
F8.5999999999999996
sg17
F9.1999999999999993
sg6
S'0303461'
p138
sg8
S'Firefly'
p139
ssS'Home Improvement'
p140
(dp141
g16
F7.9000000000000004
sg17
F7.2000000000000002
sg6
S'0101120'
p142
sg8
S'Home Improvement'
p143
ssS'Futurama'
p144
(dp145
g16
F7.5
sg17
F8.5999999999999996
sg6
S'0149460'
p146
sg8
S'Futurama'
p147
ssS'Stargate SG-1'
p148
(dp149
g16
F8.9000000000000004
sg17
F8.5
sg6
S'0118480'
p150
sg8
S'Stargate SG-1'
p151
ssS'30 Rock'
p152
(dp153
g16
F9
sg17
F8.3000000000000007
sg6
S'0496424'
p154
sg8
S'30 Rock'
p155
ssS'Spartacus: War of the Damned'
p156
(dp157
g16
F9.6999999999999993
sg17
F8.6999999999999993
sg6
S'1442449'
p158
sg8
S'Spartacus: War of the Damned'
p159
ssS'Star Trek: Deep Space Nine'
p160
(dp161
g16
F8.5
sg17
F7.9000000000000004
sg6
S'0106145'
p162
sg8
S'Star Trek: Deep Space Nine'
p163
ssS'The X Files'
p164
(dp165
g16
F8.5
sg17
F8.8000000000000007
sg6
S'0106179'
p166
sg8
S'The X Files'
p167
ssS'Battlestar Galactica (1978-1979)'
p168
(dp169
g16
F7.7999999999999998
sg17
F7.0999999999999996
sg6
S'0076984'
p170
sg8
S'Battlestar Galactica (1978-1979)'
p171
ssS'Jericho'
p172
(dp173
S'ratingLastEpisode'
p174
F8.6999999999999993
sS'ratingSeries'
p175
F8
sS'id'
p176
S'0805663'
p177
sg8
S'Jericho'
p178
ssS'My Name is Earl'
p179
(dp180
g16
F8.3000000000000007
sg17
F7.7999999999999998
sg6
S'0460091'
p181
sg8
S'My Name is Earl'
p182
ssS'Burn Notice'
p183
(dp184
g16
F9
sg17
F8
sg6
S'0810788'
p185
sg8
S'Burn Notice'
p186
ssS'Mad Men'
p187
(dp188
g16
F9.3000000000000007
sg17
F8.6999999999999993
sg6
S'0804503'
p189
sg8
S'Mad Men'
p190
ssS'Magnum, P.I.'
p191
(dp192
g16
F8.8000000000000007
sg17
F7.5
sg6
S'0080240'
p193
sg8
S'Magnum, P.I.'
p194
ssS'Revolution'
p195
(dp196
g16
F8.3000000000000007
sg17
F6.7000000000000002
sg6
S'2070791'
p197
sg8
S'Revolution'
p198
ssS'Flashforward'
p199
(dp200
g16
F8.8000000000000007
sg17
F7.5999999999999996
sg6
S'1441135'
p201
sg8
S'Flashforward'
p202
ssS'The Following'
p203
(dp204
g16
F8.3000000000000007
sg17
F7.5
sg6
S'2071645'
p205
sg8
S'The Following'
p206
ssS'Breaking Bad'
p207
(dp208
g16
F9.9000000000000004
sg17
F9.5
sg6
S'0903747'
p209
sg8
S'Breaking Bad'
p210
ssS'Scrubs (S8 finale)'
p211
(dp212
S'ratingLastEpisode'
p213
F9.6999999999999993
sS'ratingSeries'
p214
F8.5
sS'id'
p215
S'0285403'
p216
ssS'M*A*S*H'
p217
(dp218
g16
F8.1999999999999993
sg17
F8.5
sg6
S'0068098'
p219
sg8
S'M*A*S*H'
p220
ssS'The Newsroom'
p221
(dp222
g16
F9
sg17
F8.5999999999999996
sg6
S'1870479'
p223
sg8
S'The Newsroom'
p224
ssS'Dexter'
p225
(dp226
g16
F4.7999999999999998
sg17
F8.9000000000000004
sg6
S'0773262'
p227
sg8
S'Dexter'
p228
ssS'Two and a Half Men'
p229
(dp230
g16
F4.5999999999999996
sg17
F7.0999999999999996
sg6
S'0369179'
p231
sg8
S'Two and a Half Men'
p232
ssS'Merlin'
p233
(dp234
g16
F8.1999999999999993
sg17
F7.9000000000000004
sg6
S'1199099'
p235
sg8
S'Merlin'
p236
ssS'Beverly Hills, 90210 (1990-2000)'
p237
(dp238
g16
F7.5
sg17
F6.2000000000000002
sg6
S'0098749'
p239
sg8
S'Beverly Hills, 90210 (1990-2000)'
p240
ssS'Stargate: Universe'
p241
(dp242
g16
F8.9000000000000004
sg17
F7.7000000000000002
sg6
S'1286039'
p243
sg8
S'Stargate: Universe'
p244
ssS'Cheers'
p245
(dp246
g16
F8.8000000000000007
sg17
F7.7999999999999998
sg6
S'0083399'
p247
sg8
S'Cheers'
p248
ssS'The Pacific'
p249
(dp250
g16
F8.0999999999999996
sg17
F8.3000000000000007
sg6
S'0374463'
p251
sg8
S'The Pacific'
p252
ssS'Lois & Clark: The New Adventures of Superman'
p253
(dp254
g16
F7.5
sg17
F6.7999999999999998
sg6
S'0106057'
p255
sg8
S'Lois & Clark: The New Adventures of Superman'
p256
ssS'All in the Family'
p257
(dp258
g16
F8.5999999999999996
sg17
F8.5
sg6
S'0066626'
p259
sg8
S'All in the Family'
p260
ssS'Band of Brothers'
p261
(dp262
g16
F9.3000000000000007
sg17
F9.5999999999999996
sg6
S'0185906'
p263
sg8
S'Band of Brothers'
p264
ssS'Six Feet Under'
p265
(dp266
g16
F9.8000000000000007
sg17
F8.8000000000000007
sg6
S'0248654'
p267
sg8
S'Six Feet Under'
p268
ssS'True Blood'
p269
(dp270
g16
F5.0999999999999996
sg17
F8
sg6
S'0844441'
p271
sg8
S'True Blood'
p272
ssS'Deadwood'
p273
(dp274
g16
F8.5999999999999996
sg17
F8.8000000000000007
sg6
S'0348914'
p275
sg8
S'Deadwood'
p276
ssS'Family Ties'
p277
(dp278
g16
F7.9000000000000004
sg17
F7.2000000000000002
sg6
S'0083413'
p279
sg8
S'Family Ties'
p280
ssS'Battlestar Galactica (2004-2009)'
p281
(dp282
g16
F8.9000000000000004
sg17
F8.8000000000000007
sg6
S'0407362'
p283
sg8
S'Battlestar Galactica (2004-2009)'
p284
ssS'ER'
p285
(dp286
g16
F9.1999999999999993
sg17
F7.7000000000000002
sg6
S'0108757'
p287
sg8
S'ER'
p288
ssS'Charmed'
p289
(dp290
g16
F9.0999999999999996
sg17
F7
sg6
S'0158552'
p291
sg8
S'Charmed'
p292
ssS'Chuck'
p293
(dp294
g16
F9.1999999999999993
sg17
F8.3000000000000007
sg6
S'0934814'
p295
sg8
S'Chuck'
p296
ssS'Misfits'
p297
(dp298
g16
F6.9000000000000004
sg17
F8.4000000000000004
sg6
S'1548850'
p299
sg8
S'Misfits'
p300
ssS'Star Trek: Voyager'
p301
(dp302
g16
F8.4000000000000004
sg17
F7.7000000000000002
sg6
S'0112178'
p303
sg8
S'Star Trek: Voyager'
p304
ssS'Nip/Tuck'
p305
(dp306
g16
F7.7000000000000002
sg17
F7.7000000000000002
sg6
S'0361217'
p307
sg8
S'Nip/Tuck'
p308
ssS'Gilmore Girls'
p309
(dp310
g16
F9.0999999999999996
sg17
F8
sg6
S'0238784'
p311
sg8
S'Gilmore Girls'
p312
ssS'Mr. Bean'
p313
(dp314
g16
F8.0999999999999996
sg17
F8.5999999999999996
sg6
S'0096657'
p315
sg8
S'Mr. Bean'
p316
ssS'Sons of Anarchy'
p317
(dp318
g16
F9
sg17
F8.6999999999999993
sg6
S'1124373'
p319
sg8
S'Sons of Anarchy'
p320
ssS'Brothers & Sisters'
p321
(dp322
g16
F8.5999999999999996
sg17
F7.2999999999999998
sg6
S'0758737'
p323
sg8
S'Brothers & Sisters'
p324
ssS'Heroes'
p325
(dp326
g16
F7.7000000000000002
sg17
F7.7000000000000002
sg6
S'0813715'
p327
sg8
S'Heroes'
p328
ssS'Star Trek: The Next Generation'
p329
(dp330
g16
F8.5
sg17
F8.6999999999999993
sg6
S'0092455'
p331
sg8
S'Star Trek: The Next Generation'
p332
ssS'The Fugitive'
p333
(dp334
g16
F8.5999999999999996
sg17
F8.0999999999999996
sg6
S'0056757'
p335
sg8
S'The Fugitive'
p336
ssS'Newhart'
p337
(dp338
g16
F9.5
sg17
F7.7999999999999998
sg6
S'0083455'
p339
sg8
S'Newhart'
p340
ssS'White Collar'
p341
(dp342
g16
F8.6999999999999993
sg17
F8.3000000000000007
sg6
S'1358522'
p343
sg8
S'White Collar'
p344
ssS'Dragon Ball Z'
p345
(dp346
g16
F4.7999999999999998
sg17
F8.9000000000000004
sg6
S'0214341'
p347
sg8
S'Dragon Ball Z'
p348
ssS'Justified'
p349
(dp350
g16
F9
sg17
F8.6999999999999993
sg6
S'1489428'
p351
sg8
S'Justified'
p352
ssS'Roseanne'
p353
(dp354
g16
F7.7000000000000002
sg17
F7
sg6
S'0094540'
p355
sg8
S'Roseanne'
p356
ssS'Malcolm in the Middle'
p357
(dp358
g16
F9.1999999999999993
sg17
F8
sg6
S'0212671'
p359
sg8
S'Malcolm in the Middle'
p360
ssS'The Fresh Prince of Bel-Air'
p361
(dp362
g16
F8.5999999999999996
sg17
F8
sg6
S'0098800'
p363
sg8
S'The Fresh Prince of Bel-Air'
p364
ssS'The Office (UK)'
p365
(dp366
g16
F9.4000000000000004
sg17
F8.6999999999999993
sg6
S'0290978'
p367
sg8
S'The Office (UK)'
p368
ssS'The Killing'
p369
(dp370
g16
F9.0999999999999996
sg17
F8.1999999999999993
sg6
S'1637727'
p371
sg8
S'The Killing'
p372
ssS'The L Word'
p373
(dp374
g16
F6.5999999999999996
sg17
F7.5999999999999996
sg6
S'0330251'
p375
sg8
S'The L Word'
p376
ssS'Friends'
p377
(dp378
g16
F9.5999999999999996
sg17
F9
sg6
S'0108778'
p379
sg8
S'Friends'
p380
ssS'One Tree Hill'
p381
(dp382
g16
F8.3000000000000007
sg17
F7.7000000000000002
sg6
S'0368530'
p383
sg8
S'One Tree Hill'
p384
ssS'Parks and Recreation'
p385
(dp386
g16
F9.6999999999999993
sg17
F8.5999999999999996
sg6
S'1266020'
p387
sg8
S'Parks and Recreation'
p388
ssS"That '70s Show"
p389
(dp390
g16
F8.9000000000000004
sg17
F8.0999999999999996
sg6
S'0165598'
p391
sg8
S"That '70s Show"
p392
ssS'Lost'
p393
(dp394
g16
F8.0999999999999996
sg17
F8.5
sg6
S'0411008'
p395
sg8
S'Lost'
p396
ssS'The Cosby Show'
p397
(dp398
g16
F7.7999999999999998
sg17
F7.5
sg6
S'0086687'
p399
sg8
S'The Cosby Show'
p400
ssS'The O.C.'
p401
(dp402
g16
F9
sg17
F7.5
sg6
S'0362359'
p403
sg8
S'The O.C.'
p404
ssS'House M.D.'
p405
(dp406
g16
F9.3000000000000007
sg17
F8.9000000000000004
sg6
S'0412142'
p407
sg8
S'House M.D.'
p408
ssS'Alias'
p409
(dp410
g16
F7.4000000000000004
sg17
F7.5999999999999996
sg6
S'0285333'
p411
sg8
S'Alias'
p412
ssS'Scrubs (S9 finale)'
p413
(dp414
g213
F6.7000000000000002
sg214
F8.5
sg215
g216
ssS'The Shield'
p415
(dp416
g174
F9.1999999999999993
sg175
F8.8000000000000007
sg6
S'0286486'
p417
sg8
S'The Shield'
p418
ssS'Sex and the City'
p419
(dp420
g174
F8.5999999999999996
sg175
F6.9000000000000004
sg6
S'0159206'
p421
sg8
S'Sex and the City'
p422
ssS'Psych'
p423
(dp424
g174
F9
sg175
F8.4000000000000004
sg6
S'0491738'
p425
sg8
S'Psych'
p426
ssS'The Office (US)'
p427
(dp428
g174
F9.6999999999999993
sg175
F8.8000000000000007
sg6
S'0386676'
p429
sg8
S'The Office (US)'
p430
ssS'The Sopranos'
p431
(dp432
g174
F7.0999999999999996
sg175
F9.3000000000000007
sg6
S'0141842'
p433
sg8
S'The Sopranos'
p434
ssS'Buffy the Vampire Slayer'
p435
(dp436
g174
F9.1999999999999993
sg175
F8.1999999999999993
sg6
S'0118276'
p437
sg8
S'Buffy the Vampire Slayer'
p438
ss.