(dp1
S'Smallville'
p2
(dp3
S'rating_series'
p4
F7.5
sS'id'
p5
S'0279600'
p6
sS'rating_finalepisode'
p7
F9.1999999999999993
ssS'Desperate Housewives'
p8
(dp9
g4
F7.4000000000000004
sg5
S'0410975'
p10
sg7
F9.0999999999999996
ssS'The IT Crowd'
p11
(dp12
g4
F8.5999999999999996
sg5
S'0487831'
p13
sg7
F7.5999999999999996
ssS'Boy Meets World'
p14
(dp15
g4
F8.0999999999999996
sg5
S'0105958'
p16
sg7
F9.4000000000000004
ssS'Frasier'
p17
(dp18
g4
F8
sg5
S'0106004'
p19
sg7
F9.1999999999999993
ssS'24'
p20
(dp21
g4
F8.4000000000000004
sg5
S'0285331'
p22
sg7
F9.0999999999999996
ssS'Baywatch'
p23
(dp24
g4
F5.0999999999999996
sg5
S'0096542'
p25
sg7
F6.2999999999999998
ssS'The King of Queens'
p26
(dp27
g4
F7.4000000000000004
sg5
S'0165581'
p28
sg7
F8.5
ssS'Everybody Loves Raymond'
p29
(dp30
S'rating_series'
p31
F7.0999999999999996
sg5
S'0115167'
p32
sS'rating_finalepisode'
p33
F8.4000000000000004
ssS'Boardwalk Empire'
p34
(dp35
g31
F8.5999999999999996
sg5
S'0979432'
p36
sg33
F9.3000000000000007
ssS'Weeds'
p37
(dp38
g31
F8.0999999999999996
sg5
S'0439100'
p39
sg33
F7.7000000000000002
ssS'Veronica Mars'
p40
(dp41
g31
F8.4000000000000004
sg5
S'0412253'
p42
sg33
F8.5999999999999996
ssS'Dallas (1978-1991)'
p43
(dp44
g31
F7
sg5
S'0077000'
p45
sg33
F7.2999999999999998
ssS'Stargate: Atlantis'
p46
(dp47
g31
F8.0999999999999996
sg5
S'0374455'
p48
sg33
F8.8000000000000007
ssS'Prison Break'
p49
(dp50
g31
F8.5
sg5
S'0455275'
p51
sg33
F8.8000000000000007
ssS'Fringe'
p52
(dp53
g31
F8.5
sg5
S'1119644'
p54
sg33
F9.4000000000000004
ssS'Monk'
p55
(dp56
g31
F8
sg5
S'0312172'
p57
sg33
F9.3000000000000007
ssS'Rome'
p58
(dp59
g31
F8.9000000000000004
sg5
S'0384766'
p60
sg33
F9.0999999999999996
ssS'Oz'
p61
(dp62
g31
F8.8000000000000007
sg5
S'0118421'
p63
sg33
F8.5
ssS'The West Wing'
p64
(dp65
g31
F8.8000000000000007
sg5
S'0200276'
p66
sg33
F8.9000000000000004
ssS'Star Trek: Enterprise'
p67
(dp68
g31
F7.5
sg5
S'0244365'
p69
sg33
F5.2999999999999998
ssS'Entourage'
p70
(dp71
S'rating_series'
p72
F8.5999999999999996
sg5
S'0387199'
p73
sS'rating_finalepisode'
p74
F8.8000000000000007
ssS'Angel'
p75
(dp76
g72
F8
sg5
S'0162065'
p77
sg74
F9.5999999999999996
ssS'The Mentalist'
p78
(dp79
g72
F8.0999999999999996
sg5
S'1196946'
p80
sg74
F9.0999999999999996
ssS'Skins'
p81
(dp82
g72
F8.1999999999999993
sg5
S'0840196'
p83
sg74
F8
ssS'Seinfeld'
p84
(dp85
g72
F8.9000000000000004
sg5
S'0098904'
p86
sg74
F7.9000000000000004
ssS'The Wire'
p87
(dp88
g72
F9.4000000000000004
sg5
S'0306414'
p89
sg74
F9.5999999999999996
ssS'Married with Children'
p90
(dp91
g72
F8.0999999999999996
sg5
S'0092400'
p92
sg74
F8
ssS'90210 (2008-2013)'
p93
(dp94
g72
F6.0999999999999996
sg5
S'1225901'
p95
sg74
F7.5
ssS'Glee'
p96
(dp97
g72
F6.7000000000000002
sg5
S'1327801'
p98
sg74
F9.1999999999999993
ssS'Avatar: The Last Airbender'
p99
(dp100
g72
F9.1999999999999993
sg5
S'0417299'
p101
sg74
F9.8000000000000007
ssS'How I Met Your Mother'
p102
(dp103
g72
F8.4000000000000004
sg5
S'0460649'
p104
sg74
F5.7000000000000002
ssS'Firefly'
p105
(dp106
g72
F9.0999999999999996
sg5
S'0303461'
p107
sg74
F8.5999999999999996
ssS'Home Improvement'
p108
(dp109
g72
F7.2000000000000002
sg5
S'0101120'
p110
sg74
F8.0999999999999996
ssS'Futurama'
p111
(dp112
g72
F8.5999999999999996
sg5
S'0149460'
p113
sg74
F9.0999999999999996
ssS'Stargate SG-1'
p114
(dp115
g72
F8.4000000000000004
sg5
S'0118480'
p116
sg74
F9
ssS'30 Rock'
p117
(dp118
g72
F8.1999999999999993
sg5
S'0496424'
p119
sg74
F9.0999999999999996
ssS'Spartacus: War of the Damned'
p120
(dp121
g72
F8.5999999999999996
sg5
S'1442449'
p122
sg74
F9.8000000000000007
ssS'Star Trek: Deep Space Nine'
p123
(dp124
g72
F7.9000000000000004
sg5
S'0106145'
p125
sg74
F8.5999999999999996
ssS'The X Files'
p126
(dp127
g72
F8.6999999999999993
sg5
S'0106179'
p128
sg74
F7.0999999999999996
ssS'Battlestar Galactica (1978-1979)'
p129
(dp130
g72
F7.0999999999999996
sg5
S'0076984'
p131
sg74
F7.7000000000000002
ssS'Jericho'
p132
(dp133
g72
F8
sg5
S'0805663'
p134
sg74
F8.8000000000000007
ssS'My Name is Earl'
p135
(dp136
g72
F7.7999999999999998
sg5
S'0460091'
p137
sg74
F8.3000000000000007
ssS'Burn Notice'
p138
(dp139
g72
F8
sg5
S'0810788'
p140
sg74
F9.1999999999999993
ssS'Mad Men'
p141
(dp142
g72
F8.6999999999999993
sg5
S'0804503'
p143
sg74
F9.3000000000000007
ssS'Magnum, P.I.'
p144
(dp145
g72
F7.5
sg5
S'0080240'
p146
sg74
F8.8000000000000007
ssS'Revolution'
p147
(dp148
g72
F6.7000000000000002
sg5
S'2070791'
p149
sg74
F8.4000000000000004
ssS'Flashforward'
p150
(dp151
g72
F7.5999999999999996
sg5
S'1441135'
p152
sg74
F8.8000000000000007
ssS'The Following'
p153
(dp154
g72
F7.5
sg5
S'2071645'
p155
sg74
F8.0999999999999996
ssS'Breaking Bad'
p156
(dp157
g72
F9.5
sg5
S'0903747'
p158
sg74
F9.9000000000000004
ssS'Scrubs (S8 finale)'
p159
(dp160
g72
F8.4000000000000004
sg5
S'0285403'
p161
sg74
F9.8000000000000007
ssS'M*A*S*H'
p162
(dp163
g72
F8.4000000000000004
sg5
S'0068098'
p164
sg74
F8.3000000000000007
ssS'The Newsroom'
p165
(dp166
g72
F8.5999999999999996
sg5
S'1870479'
p167
sg74
F9.0999999999999996
ssS'Dexter'
p168
(dp169
g72
F8.8000000000000007
sg5
S'0773262'
p170
sg74
F4.7999999999999998
ssS'Two and a Half Men'
p171
(dp172
g72
F7.0999999999999996
sg5
S'0369179'
p173
sg74
F4.5
ssS'Merlin'
p174
(dp175
g72
F7.9000000000000004
sg5
S'1199099'
p176
sg74
F8.3000000000000007
ssS'Beverly Hills, 90210 (1990-2000)'
p177
(dp178
g72
F6.2000000000000002
sg5
S'0098749'
p179
sg74
F7.7000000000000002
ssS'Stargate: Universe'
p180
(dp181
g72
F7.7000000000000002
sg5
S'1286039'
p182
sg74
F9
ssS'Cheers'
p183
(dp184
g72
F7.7999999999999998
sg5
S'0083399'
p185
sg74
F8.4000000000000004
ssS'The Pacific'
p186
(dp187
g72
F8.3000000000000007
sg5
S'0374463'
p188
sg74
F8.1999999999999993
ssS'Lois & Clark: The New Adventures of Superman'
p189
(dp190
g72
F6.7999999999999998
sg5
S'0106057'
p191
sg74
F7.4000000000000004
ssS'All in the Family'
p192
(dp193
g72
F8.4000000000000004
sg5
S'0066626'
p194
sg74
F8.6999999999999993
ssS'Band of Brothers'
p195
(dp196
g72
F9.5999999999999996
sg5
S'0185906'
p197
sg74
F9.4000000000000004
ssS'Six Feet Under'
p198
(dp199
g72
F8.8000000000000007
sg5
S'0248654'
p200
sg74
F9.9000000000000004
ssS'True Blood'
p201
(dp202
g72
F8
sg5
S'0844441'
p203
sg74
F5.2000000000000002
ssS'Deadwood'
p204
(dp205
g72
F8.8000000000000007
sg5
S'0348914'
p206
sg74
F8.6999999999999993
ssS'Family Ties'
p207
(dp208
g72
F7.2000000000000002
sg5
S'0083413'
p209
sg74
F8.0999999999999996
ssS'Battlestar Galactica (2004-2009)'
p210
(dp211
g72
F8.8000000000000007
sg5
S'0407362'
p212
sg74
F9
ssS'ER'
p213
(dp214
g72
F7.7000000000000002
sg5
S'0108757'
p215
sg74
F9.3000000000000007
ssS'Charmed'
p216
(dp217
g72
F7
sg5
S'0158552'
p218
sg74
F9.3000000000000007
ssS'Chuck'
p219
(dp220
g72
F8.1999999999999993
sg5
S'0934814'
p221
sg74
F9.3000000000000007
ssS'Misfits'
p222
(dp223
g72
F8.3000000000000007
sg5
S'1548850'
p224
sg74
F6.9000000000000004
ssS'Star Trek: Voyager'
p225
(dp226
g72
F7.7000000000000002
sg5
S'0112178'
p227
sg74
F8.5
ssS'Nip/Tuck'
p228
(dp229
g72
F7.7000000000000002
sg5
S'0361217'
p230
sg74
F7.7999999999999998
ssS'Gilmore Girls'
p231
(dp232
g72
F8
sg5
S'0238784'
p233
sg74
F9.0999999999999996
ssS'Mr. Bean'
p234
(dp235
g72
F8.5
sg5
S'0096657'
p236
sg74
F8.3000000000000007
ssS'Sons of Anarchy'
p237
(dp238
g72
F8.5999999999999996
sg5
S'1124373'
p239
sg74
F9.5
ssS'Brothers & Sisters'
p240
(dp241
g72
F7.2999999999999998
sg5
S'0758737'
p242
sg74
F9.1999999999999993
ssS'Heroes'
p243
(dp244
g72
F7.7000000000000002
sg5
S'0813715'
p245
sg74
F7.7999999999999998
ssS'Star Trek: The Next Generation'
p246
(dp247
g72
F8.6999999999999993
sg5
S'0092455'
p248
sg74
F8.5
ssS'The Fugitive'
p249
(dp250
g72
F8.0999999999999996
sg5
S'0056757'
p251
sg74
F8.9000000000000004
ssS'Newhart'
p252
(dp253
g72
F7.7999999999999998
sg5
S'0083455'
p254
sg74
F9.5999999999999996
ssS'White Collar'
p255
(dp256
g72
F8.3000000000000007
sg5
S'1358522'
p257
sg74
F9.3000000000000007
ssS'Dragon Ball Z'
p258
(dp259
g72
F8.8000000000000007
sg5
S'0214341'
p260
sg74
F4.7000000000000002
ssS'Justified'
p261
(dp262
g72
F8.5999999999999996
sg5
S'1489428'
p263
sg74
F9.6999999999999993
ssS'Roseanne'
p264
(dp265
g72
F7
sg5
S'0094540'
p266
sg74
F7.9000000000000004
ssS'Malcolm in the Middle'
p267
(dp268
g72
F8
sg5
S'0212671'
p269
sg74
F9.1999999999999993
ssS'The Fresh Prince of Bel-Air'
p270
(dp271
g72
F7.9000000000000004
sg5
S'0098800'
p272
sg74
F9
ssS'The Office (UK)'
p273
(dp274
g72
F8.5999999999999996
sg5
S'0290978'
p275
sg74
F9.5
ssS'The Killing'
p276
(dp277
g72
F8.1999999999999993
sg5
S'1637727'
p278
sg74
F9.1999999999999993
ssS'The L Word'
p279
(dp280
g72
F7.5999999999999996
sg5
S'0330251'
p281
sg74
F6.5999999999999996
ssS'Friends'
p282
(dp283
g72
F9
sg5
S'0108778'
p284
sg74
F9.6999999999999993
ssS'One Tree Hill'
p285
(dp286
g72
F7.7000000000000002
sg5
S'0368530'
p287
sg74
F8.8000000000000007
ssS'Parks and Recreation'
p288
(dp289
g72
F8.5999999999999996
sg5
S'1266020'
p290
sg74
F9.6999999999999993
ssS"That '70s Show"
p291
(dp292
g72
F8.0999999999999996
sg5
S'0165598'
p293
sg74
F9
ssS'Lost'
p294
(dp295
g72
F8.4000000000000004
sg5
S'0411008'
p296
sg74
F8.0999999999999996
ssS'The Cosby Show'
p297
(dp298
g72
F7.5
sg5
S'0086687'
p299
sg74
F7.5999999999999996
ssS'The O.C.'
p300
(dp301
g72
F7.5
sg5
S'0362359'
p302
sg74
F9.1999999999999993
ssS'House M.D.'
p303
(dp304
g72
F8.8000000000000007
sg5
S'0412142'
p305
sg74
F9.3000000000000007
ssS'Alias'
p306
(dp307
g72
F7.5999999999999996
sg5
S'0285333'
p308
sg74
F7.7000000000000002
ssS'Scrubs (S9 finale)'
p309
(dp310
g72
F8.4000000000000004
sg5
g161
sg74
F6.5999999999999996
ssS'The Shield'
p311
(dp312
g72
F8.6999999999999993
sg5
S'0286486'
p313
sg74
F9.1999999999999993
ssS'Sex and the City'
p314
(dp315
g72
F7
sg5
S'0159206'
p316
sg74
F8.8000000000000007
ssS'Psych'
p317
(dp318
g72
F8.4000000000000004
sg5
S'0491738'
p319
sg74
F9.5
ssS'The Office (US)'
p320
(dp321
g72
F8.8000000000000007
sg5
S'0386676'
p322
sg74
F9.6999999999999993
ssS'The Sopranos'
p323
(dp324
g72
F9.1999999999999993
sg5
S'0141842'
p325
sg74
F9
ssS'Buffy the Vampire Slayer'
p326
(dp327
g72
F8.1999999999999993
sg5
S'0118276'
p328
sg74
F9.3000000000000007
ss.