(lp1
(dp2
S'ratingLastEpisode'
p3
F4.7999999999999998
sS'ratingSeries'
p4
F8.9000000000000004
sS'ID'
p5
S'0773262'
p6
sS'Name'
p7
S'Dexter'
p8
sa(dp9
g3
F4.7999999999999998
sg4
F8.9000000000000004
sg5
S'0214341'
p10
sg7
S'Dragon Ball Z'
p11
sa(dp12
g3
F5.7000000000000002
sg4
F8.5
sg5
S'0460649'
p13
sg7
S'How I Met Your Mother'
p14
sa(dp15
g3
F4.5999999999999996
sg4
F7.0999999999999996
sg5
S'0369179'
p16
sg7
S'Two and a Half Men'
p17
sa(dp18
g3
F7.0999999999999996
sg4
F9.3000000000000007
sg5
S'0141842'
p19
sg7
S'The Sopranos'
p20
sa(dp21
g3
F5.4000000000000004
sg4
F7.5
sg5
S'0244365'
p22
sg7
S'Star Trek: Enterprise'
p23
sa(dp24
g3
F6.7000000000000002
sg4
F8.5
sg5
S'0285403'
p25
sg7
S'Scrubs'
p26
sa(dp27
g3
F6.9000000000000004
sg4
F8.4000000000000004
sg5
S'1548850'
p28
sg7
S'Misfits'
p29
sa(dp30
g3
F7.5
sg4
F8.5999999999999996
sg5
S'0149460'
p31
sg7
S'Futurama'
p32
sa(dp33
g3
F6.5999999999999996
sg4
F7.5999999999999996
sg5
S'0330251'
p34
sg7
S'The L Word'
p35
sa(dp36
g3
F8.0999999999999996
sg4
F8.9000000000000004
sg5
S'0098904'
p37
sg7
S'Seinfeld'
p38
sa(dp39
g3
F7.7000000000000002
sg4
F8.4000000000000004
sg5
S'0491738'
p40
sg7
S'Psych'
p41
sa(dp42
g3
F8.5999999999999996
sg4
F9.1999999999999993
sg5
S'0303461'
p43
sg7
S'Firefly'
p44
sa(dp45
g3
F7.5999999999999996
sg4
F8.0999999999999996
sg5
S'0439100'
p46
sg7
S'Weeds'
p47
sa(dp48
g3
F7.7000000000000002
sg4
F8.1999999999999993
sg5
S'0840196'
p49
sg7
S'Skins'
p50
sa(dp51
g3
F8.0999999999999996
sg4
F8.5
sg5
S'0411008'
p52
sg7
S'Lost'
p53
sa(dp54
g3
F8.5
sg4
F8.9000000000000004
sg5
S'0118421'
p55
sg7
S'Oz'
p56
sa(dp57
g3
F7.7000000000000002
sg4
F8.0999999999999996
sg5
S'0092400'
p58
sg7
S'Married with Children'
p59
sa(dp60
g3
F8.1999999999999993
sg4
F8.5
sg5
S'0068098'
p61
sg7
S'M*A*S*H'
p62
sa(dp63
g3
F9.0999999999999996
sg4
F9.4000000000000004
sg5
S'0306414'
p64
sg7
S'The Wire'
p65
sa(dp66
g3
F8.5
sg4
F8.8000000000000007
sg5
S'0106179'
p67
sg7
S'The X Files'
p68
sa(dp69
g3
F9.3000000000000007
sg4
F9.5999999999999996
sg5
S'0185906'
p70
sg7
S'Band of Brothers'
p71
sa(dp72
g3
F8.5999999999999996
sg4
F8.8000000000000007
sg5
S'0348914'
p73
sg7
S'Deadwood'
p74
sa(dp75
g3
F8.0999999999999996
sg4
F8.3000000000000007
sg5
S'0374463'
p76
sg7
S'The Pacific'
p77
sa(dp78
g3
F7.4000000000000004
sg4
F7.5999999999999996
sg5
S'0285333'
p79
sg7
S'Alias'
p80
sa(dp81
g3
F8.5
sg4
F8.6999999999999993
sg5
S'0092455'
p82
sg7
S'Star Trek: The Next Generation'
p83
sa(dp84
g3
F7.7000000000000002
sg4
F7.7000000000000002
sg5
S'0813715'
p85
sg7
S'Heroes'
p86
sa(dp87
g3
F7.7000000000000002
sg4
F7.7000000000000002
sg5
S'0361217'
p88
sg7
S'Nip/Tuck'
p89
sa(dp90
g3
F8.5999999999999996
sg4
F8.5999999999999996
sg5
S'0487831'
p91
sg7
S'The IT Crowd'
p92
sa(dp93
g3
F8.4000000000000004
sg4
F8.4000000000000004
sg5
S'0412253'
p94
sg7
S'Veronica Mars'
p95
sa(dp96
g3
F8.5999999999999996
sg4
F8.5
sg5
S'0066626'
p97
sg7
S'All in the Family'
p98
sa(dp99
g3
F8.9000000000000004
sg4
F8.8000000000000007
sg5
S'0407362'
p100
sg7
S'Battlestar Galactica (2004-2009)'
p101
sa(dp102
g3
F8.6999999999999993
sg4
F8.5999999999999996
sg5
S'0387199'
p103
sg7
S'Entourage'
p104
sa(dp105
g3
F9
sg4
F8.9000000000000004
sg5
S'0384766'
p106
sg7
S'Rome'
p107
sa(dp108
g3
F8.6999999999999993
sg4
F8.5
sg5
S'0455275'
p109
sg7
S'Prison Break'
p110
sa(dp111
g3
F9.4000000000000004
sg4
F9.1999999999999993
sg5
S'0417299'
p112
sg7
S'Avatar: The Last Airbender'
p113
sa(dp114
g3
F8.1999999999999993
sg4
F7.9000000000000004
sg5
S'1199099'
p115
sg7
S'Merlin'
p116
sa(dp117
g3
F7.7999999999999998
sg4
F7.5
sg5
S'0086687'
p118
sg7
S'The Cosby Show'
p119
sa(dp120
g3
F9
sg4
F8.6999999999999993
sg5
S'1489428'
p121
sg7
S'Justified'
p122
sa(dp123
g3
F9.1999999999999993
sg4
F8.8000000000000007
sg5
S'0286486'
p124
sg7
S'The Shield'
p125
sa(dp126
g3
F8.6999999999999993
sg4
F8.3000000000000007
sg5
S'1358522'
p127
sg7
S'White Collar'
p128
sa(dp129
g3
F9.0999999999999996
sg4
F8.6999999999999993
sg5
S'0979432'
p130
sg7
S'Boardwalk Empire'
p131
sa(dp132
g3
F9.9000000000000004
sg4
F9.5
sg5
S'0903747'
p133
sg7
S'Breaking Bad'
p134
sa(dp135
g3
F9.3000000000000007
sg4
F8.9000000000000004
sg5
S'0412142'
p136
sg7
S'House M.D.'
p137
sa(dp138
g3
F8.9000000000000004
sg4
F8.5
sg5
S'0118480'
p139
sg7
S'Stargate SG-1'
p140
sa(dp141
g3
F9
sg4
F8.5999999999999996
sg5
S'1870479'
p142
sg7
S'The Newsroom'
p143
sa(dp144
g3
F7.4000000000000004
sg4
F6.9000000000000004
sg5
S'0077000'
p145
sg7
S'Dallas (1978-1991)'
p146
sa(dp147
g3
F8.5999999999999996
sg4
F8.0999999999999996
sg5
S'0056757'
p148
sg7
S'The Fugitive'
p149
sa(dp150
g3
F8.3000000000000007
sg4
F7.7999999999999998
sg5
S'0460091'
p151
sg7
S'My Name is Earl'
p152
sa(dp153
g3
F9.0999999999999996
sg4
F8.5
sg5
S'0285331'
p154
sg7
S'24'
p155
sa(dp156
g3
F9.5999999999999996
sg4
F9
sg5
S'0108778'
p157
sg7
S'Friends'
p158
sa(dp159
g3
F9.5999999999999996
sg4
F9
sg5
g157
sg7
g158
sa(dp160
g3
F8.6999999999999993
sg4
F8.0999999999999996
sg5
S'0374455'
p161
sg7
S'Stargate: Atlantis'
p162
sa(dp163
g3
F8.5999999999999996
sg4
F8
sg5
S'0098800'
p164
sg7
S'The Fresh Prince of Bel-Air'
p165
sa(dp166
g3
F8.3000000000000007
sg4
F7.7000000000000002
sg5
S'0368530'
p167
sg7
S'One Tree Hill'
p168
sa(dp169
g3
F9.3000000000000007
sg4
F8.6999999999999993
sg5
S'0804503'
p170
sg7
S'Mad Men'
p171
sa(dp172
g3
F9
sg4
F8.3000000000000007
sg5
S'0496424'
p173
sg7
S'30 Rock'
p174
sa(dp175
g3
F7.7999999999999998
sg4
F7.0999999999999996
sg5
S'0076984'
p176
sg7
S'Battlestar Galactica (1978-1979)'
p177
sa(dp178
g3
F7.9000000000000004
sg4
F7.2000000000000002
sg5
S'0083413'
p179
sg7
S'Family Ties'
p180
sa(dp181
g3
F7.9000000000000004
sg4
F7.2000000000000002
sg5
S'0101120'
p182
sg7
S'Home Improvement'
p183
sa(dp184
g3
F7.5
sg4
F6.7999999999999998
sg5
S'0106057'
p185
sg7
S'Lois & Clark: The New Adventures of Superman'
p186
sa(dp187
g3
F7.7000000000000002
sg4
F7
sg5
S'0094540'
p188
sg7
S'Roseanne'
p189
sa(dp190
g3
F8.4000000000000004
sg4
F7.7000000000000002
sg5
S'0112178'
p191
sg7
S'Star Trek: Voyager'
p192
sa(dp193
g3
F9.4000000000000004
sg4
F8.6999999999999993
sg5
S'0290978'
p194
sg7
S'The Office (UK)'
p195
sa(dp196
g3
F9.3000000000000007
sg4
F8.5
sg5
S'1119644'
p197
sg7
S'Fringe'
p198
sa(dp199
g3
F8.9000000000000004
sg4
F8.0999999999999996
sg5
S'0165598'
p200
sg7
S"That '70s Show"
p201
sa(dp202
g3
F8.3000000000000007
sg4
F7.5
sg5
S'2071645'
p203
sg7
S'The Following'
p204
sa(dp205
g3
F8.9000000000000004
sg4
F8.0999999999999996
sg5
S'1196946'
p206
sg7
S'The Mentalist'
p207
sa(dp208
g3
F9.1999999999999993
sg4
F8.3000000000000007
sg5
S'0934814'
p209
sg7
S'Chuck'
p210
sa(dp211
g3
F9.6999999999999993
sg4
F8.8000000000000007
sg5
S'0386676'
p212
sg7
S'The Office (US)'
p213
sa(dp214
g3
F9.0999999999999996
sg4
F8.1999999999999993
sg5
S'1637727'
p215
sg7
S'The Killing'
p216
sa(dp217
g3
F9.0999999999999996
sg4
F8.0999999999999996
sg5
S'0105958'
p218
sg7
S'Boy Meets World'
p219
sa(dp220
g3
F9.1999999999999993
sg4
F8.1999999999999993
sg5
S'0118276'
p221
sg7
S'Buffy the Vampire Slayer'
p222
sa(dp223
g3
F9
sg4
F8
sg5
S'0810788'
p224
sg7
S'Burn Notice'
p225
sa(dp226
g3
F9
sg4
F8
sg5
S'0312172'
p227
sg7
S'Monk'
p228
sa(dp229
g3
F9.8000000000000007
sg4
F8.8000000000000007
sg5
S'0248654'
p230
sg7
S'Six Feet Under'
p231
sa(dp232
g3
F9.6999999999999993
sg4
F8.6999999999999993
sg5
S'1442449'
p233
sg7
S'Spartacus: War of the Damned'
p234
sa(dp235
g3
F8.8000000000000007
sg4
F7.7999999999999998
sg5
S'0083399'
p236
sg7
S'Cheers'
p237
sa(dp238
g3
F9.0999999999999996
sg4
F8
sg5
S'0238784'
p239
sg7
S'Gilmore Girls'
p240
sa(dp241
g3
F9.6999999999999993
sg4
F8.5999999999999996
sg5
S'1266020'
p242
sg7
S'Parks and Recreation'
p243
sa(dp244
g3
F9.1999999999999993
sg4
F8
sg5
S'0106004'
p245
sg7
S'Frasier'
p246
sa(dp247
g3
F9.1999999999999993
sg4
F8
sg5
g245
sg7
g246
sa(dp248
g3
F9.1999999999999993
sg4
F8
sg5
S'0212671'
p249
sg7
S'Malcolm in the Middle'
p250
sa(dp251
g3
F8.5999999999999996
sg4
F7.4000000000000004
sg5
S'0165581'
p252
sg7
S'The King of Queens'
p253
sa(dp254
g3
F8.9000000000000004
sg4
F7.7000000000000002
sg5
S'1286039'
p255
sg7
S'Stargate: Universe'
p256
sa(dp257
g3
F8.3000000000000007
sg4
F7.0999999999999996
sg5
S'0115167'
p258
sg7
S'Everybody Loves Raymond'
p259
sa(dp260
g3
F8.8000000000000007
sg4
F7.5999999999999996
sg5
S'1441135'
p261
sg7
S'Flashforward'
p262
sa(dp263
g3
F7.2999999999999998
sg4
F6
sg5
S'1225901'
p264
sg7
S'90210 (2008-2013)'
p265
sa(dp266
g3
F7.5
sg4
F6.2000000000000002
sg5
S'0098749'
p267
sg7
S'Beverly Hills, 90210 (1990-2000)'
p268
sa(dp269
g3
F8.5999999999999996
sg4
F7.2999999999999998
sg5
S'0758737'
p270
sg7
S'Brothers & Sisters'
p271
sa(dp272
g3
F6.4000000000000004
sg4
F5.0999999999999996
sg5
S'0096542'
p273
sg7
S'Baywatch'
p274
sa(dp275
g3
F8.8000000000000007
sg4
F7.5
sg5
S'0080240'
p276
sg7
S'Magnum, P.I.'
p277
sa(dp278
g3
F9.1999999999999993
sg4
F7.7000000000000002
sg5
S'0108757'
p279
sg7
S'ER'
p280
sa(dp281
g3
F8.9000000000000004
sg4
F7.4000000000000004
sg5
S'0410975'
p282
sg7
S'Desperate Housewives'
p283
sa(dp284
g3
F9
sg4
F7.5
sg5
S'0362359'
p285
sg7
S'The O.C.'
p286
sa(dp287
g3
F9.0999999999999996
sg4
F7.5
sg5
S'0279600'
p288
sg7
S'Smallville'
p289
sa(dp290
g3
F8.3000000000000007
sg4
F6.7000000000000002
sg5
S'2070791'
p291
sg7
S'Revolution'
p292
sa(dp293
g3
F8.5999999999999996
sg4
F6.9000000000000004
sg5
S'0159206'
p294
sg7
S'Sex and the City'
p295
sa(dp296
g3
F9.0999999999999996
sg4
F7
sg5
S'0158552'
p297
sg7
S'Charmed'
p298
sa(dp299
g3
F9.1999999999999993
sg4
F6.7999999999999998
sg5
S'1327801'
p300
sg7
S'Glee'
p301
sa.