(lp1
(dp2
S'ratingLastEpisode'
p3
F9.0999999999999996
sS'ratingSeries'
p4
F8.5
sS'ID'
p5
S'0285331'
p6
sS'Name'
p7
S'24'
p8
sa(dp9
g3
F9
sg4
F8.3000000000000007
sg5
S'0496424'
p10
sg7
S'30 Rock'
p11
sa(dp12
g3
F7.2999999999999998
sg4
F6
sg5
S'1225901'
p13
sg7
S'90210 (2008-2013)'
p14
sa(dp15
g3
F8.5999999999999996
sg4
F8.5
sg5
S'0066626'
p16
sg7
S'All in the Family'
p17
sa(dp18
g3
F7.4000000000000004
sg4
F7.5999999999999996
sg5
S'0285333'
p19
sg7
S'Alias'
p20
sa(dp21
g3
F9.4000000000000004
sg4
F8
sg5
S'0162065'
p22
sg7
S'Angel'
p23
sa(dp24
g3
F9.4000000000000004
sg4
F9.1999999999999993
sg5
S'0417299'
p25
sg7
S'Avatar: The Last Airbender'
p26
sa(dp27
g3
F7.7999999999999998
sg4
F7.0999999999999996
sg5
S'0076984'
p28
sg7
S'Battlestar Galactica (1978-1979)'
p29
sa(dp30
g3
F8.9000000000000004
sg4
F8.8000000000000007
sg5
S'0407362'
p31
sg7
S'Battlestar Galactica (2004-2009)'
p32
sa(dp33
g3
F9.3000000000000007
sg4
F9.5999999999999996
sg5
S'0185906'
p34
sg7
S'Band of Brothers'
p35
sa(dp36
g3
F6.4000000000000004
sg4
F5.0999999999999996
sg5
S'0096542'
p37
sg7
S'Baywatch'
p38
sa(dp39
g3
F7.5
sg4
F6.2000000000000002
sg5
S'0098749'
p40
sg7
S'Beverly Hills, 90210 (1990-2000)'
p41
sa(dp42
g3
F9.0999999999999996
sg4
F8.6999999999999993
sg5
S'0979432'
p43
sg7
S'Boardwalk Empire'
p44
sa(dp45
g3
F9.0999999999999996
sg4
F8.0999999999999996
sg5
S'0105958'
p46
sg7
S'Boy Meets World'
p47
sa(dp48
g3
F9.9000000000000004
sg4
F9.5
sg5
S'0903747'
p49
sg7
S'Breaking Bad'
p50
sa(dp51
g3
F8.5999999999999996
sg4
F7.2999999999999998
sg5
S'0758737'
p52
sg7
S'Brothers & Sisters'
p53
sa(dp54
g3
F9.1999999999999993
sg4
F8.1999999999999993
sg5
S'0118276'
p55
sg7
S'Buffy the Vampire Slayer'
p56
sa(dp57
g3
F9
sg4
F8
sg5
S'0810788'
p58
sg7
S'Burn Notice'
p59
sa(dp60
g3
F9.0999999999999996
sg4
F7
sg5
S'0158552'
p61
sg7
S'Charmed'
p62
sa(dp63
g3
F8.8000000000000007
sg4
F7.7999999999999998
sg5
S'0083399'
p64
sg7
S'Cheers'
p65
sa(dp66
g3
F9.1999999999999993
sg4
F8.3000000000000007
sg5
S'0934814'
p67
sg7
S'Chuck'
p68
sa(dp69
g3
F7.4000000000000004
sg4
F6.9000000000000004
sg5
S'0077000'
p70
sg7
S'Dallas (1978-1991)'
p71
sa(dp72
g3
F8.5999999999999996
sg4
F8.8000000000000007
sg5
S'0348914'
p73
sg7
S'Deadwood'
p74
sa(dp75
g3
F8.9000000000000004
sg4
F7.4000000000000004
sg5
S'0410975'
p76
sg7
S'Desperate Housewives'
p77
sa(dp78
g3
F4.7999999999999998
sg4
F8.9000000000000004
sg5
S'0773262'
p79
sg7
S'Dexter'
p80
sa(dp81
g3
F4.7999999999999998
sg4
F8.9000000000000004
sg5
S'0214341'
p82
sg7
S'Dragon Ball Z'
p83
sa(dp84
g3
F8.6999999999999993
sg4
F8.5999999999999996
sg5
S'0387199'
p85
sg7
S'Entourage'
p86
sa(dp87
g3
F9.1999999999999993
sg4
F7.7000000000000002
sg5
S'0108757'
p88
sg7
S'ER'
p89
sa(dp90
g3
F8.3000000000000007
sg4
F7.0999999999999996
sg5
S'0115167'
p91
sg7
S'Everybody Loves Raymond'
p92
sa(dp93
g3
F7.9000000000000004
sg4
F7.2000000000000002
sg5
S'0083413'
p94
sg7
S'Family Ties'
p95
sa(dp96
g3
F8.8000000000000007
sg4
F7.5999999999999996
sg5
S'1441135'
p97
sg7
S'Flashforward'
p98
sa(dp99
g3
F8.5999999999999996
sg4
F9.1999999999999993
sg5
S'0303461'
p100
sg7
S'Firefly'
p101
sa(dp102
g3
F9.1999999999999993
sg4
F8
sg5
S'0106004'
p103
sg7
S'Frasier'
p104
sa(dp105
g3
F9.5999999999999996
sg4
F9
sg5
S'0108778'
p106
sg7
S'Friends'
p107
sa(dp108
g3
F9.3000000000000007
sg4
F8.5
sg5
S'1119644'
p109
sg7
S'Fringe'
p110
sa(dp111
g3
F7.5
sg4
F8.5999999999999996
sg5
S'0149460'
p112
sg7
S'Futurama'
p113
sa(dp114
g3
F9.0999999999999996
sg4
F8
sg5
S'0238784'
p115
sg7
S'Gilmore Girls'
p116
sa(dp117
g3
F9.1999999999999993
sg4
F6.7999999999999998
sg5
S'1327801'
p118
sg7
S'Glee'
p119
sa(dp120
g3
F7.7000000000000002
sg4
F7.7000000000000002
sg5
S'0813715'
p121
sg7
S'Heroes'
p122
sa(dp123
g3
F7.9000000000000004
sg4
F7.2000000000000002
sg5
S'0101120'
p124
sg7
S'Home Improvement'
p125
sa(dp126
g3
F9.3000000000000007
sg4
F8.9000000000000004
sg5
S'0412142'
p127
sg7
S'House M.D.'
p128
sa(dp129
g3
F5.7000000000000002
sg4
F8.5
sg5
S'0460649'
p130
sg7
S'How I Met Your Mother'
p131
sa(dp132
g3
F9
sg4
F8.6999999999999993
sg5
S'1489428'
p133
sg7
S'Justified'
p134
sa(dp135
g3
F7.5
sg4
F6.7999999999999998
sg5
S'0106057'
p136
sg7
S'Lois & Clark: The New Adventures of Superman'
p137
sa(dp138
g3
F8.0999999999999996
sg4
F8.5
sg5
S'0411008'
p139
sg7
S'Lost'
p140
sa(dp141
g3
F8.1999999999999993
sg4
F8.5
sg5
S'0068098'
p142
sg7
S'M*A*S*H'
p143
sa(dp144
g3
F9.3000000000000007
sg4
F8.6999999999999993
sg5
S'0804503'
p145
sg7
S'Mad Men'
p146
sa(dp147
g3
F8.8000000000000007
sg4
F7.5
sg5
S'0080240'
p148
sg7
S'Magnum, P.I.'
p149
sa(dp150
g3
F9.1999999999999993
sg4
F8
sg5
S'0212671'
p151
sg7
S'Malcolm in the Middle'
p152
sa(dp153
g3
F7.7000000000000002
sg4
F8.0999999999999996
sg5
S'0092400'
p154
sg7
S'Married with Children'
p155
sa(dp156
g3
F8.1999999999999993
sg4
F7.9000000000000004
sg5
S'1199099'
p157
sg7
S'Merlin'
p158
sa(dp159
g3
F6.9000000000000004
sg4
F8.4000000000000004
sg5
S'1548850'
p160
sg7
S'Misfits'
p161
sa(dp162
g3
F9
sg4
F8
sg5
S'0312172'
p163
sg7
S'Monk'
p164
sa(dp165
g3
F8.0999999999999996
sg4
F8.5999999999999996
sg5
S'0096657'
p166
sg7
S'Mr. Bean'
p167
sa(dp168
g3
F8.3000000000000007
sg4
F7.7999999999999998
sg5
S'0460091'
p169
sg7
S'My Name is Earl'
p170
sa(dp171
g3
F7.7000000000000002
sg4
F7.7000000000000002
sg5
S'0361217'
p172
sg7
S'Nip/Tuck'
p173
sa(dp174
g3
F8.3000000000000007
sg4
F7.7000000000000002
sg5
S'0368530'
p175
sg7
S'One Tree Hill'
p176
sa(dp177
g3
F8.5
sg4
F8.9000000000000004
sg5
S'0118421'
p178
sg7
S'Oz'
p179
sa(dp180
g3
F9.6999999999999993
sg4
F8.5999999999999996
sg5
S'1266020'
p181
sg7
S'Parks and Recreation'
p182
sa(dp183
g3
F8.6999999999999993
sg4
F8.5
sg5
S'0455275'
p184
sg7
S'Prison Break'
p185
sa(dp186
g3
F7.7000000000000002
sg4
F8.4000000000000004
sg5
S'0491738'
p187
sg7
S'Psych'
p188
sa(dp189
g3
F8.3000000000000007
sg4
F6.7000000000000002
sg5
S'2070791'
p190
sg7
S'Revolution'
p191
sa(dp192
g3
F9
sg4
F8.9000000000000004
sg5
S'0384766'
p193
sg7
S'Rome'
p194
sa(dp195
g3
F7.7000000000000002
sg4
F7
sg5
S'0094540'
p196
sg7
S'Roseanne'
p197
sa(dp198
g3
F6.7000000000000002
sg4
F8.5
sg5
S'0285403'
p199
sg7
S'Scrubs'
p200
sa(dp201
g3
F8.0999999999999996
sg4
F8.9000000000000004
sg5
S'0098904'
p202
sg7
S'Seinfeld'
p203
sa(dp204
g3
F8.5999999999999996
sg4
F6.9000000000000004
sg5
S'0159206'
p205
sg7
S'Sex and the City'
p206
sa(dp207
g3
F9.8000000000000007
sg4
F8.8000000000000007
sg5
S'0248654'
p208
sg7
S'Six Feet Under'
p209
sa(dp210
g3
F7.7000000000000002
sg4
F8.1999999999999993
sg5
S'0840196'
p211
sg7
S'Skins'
p212
sa(dp213
g3
F9.0999999999999996
sg4
F7.5
sg5
S'0279600'
p214
sg7
S'Smallville'
p215
sa(dp216
g3
F9.6999999999999993
sg4
F8.6999999999999993
sg5
S'1442449'
p217
sg7
S'Spartacus: War of the Damned'
p218
sa(dp219
g3
F5.4000000000000004
sg4
F7.5
sg5
S'0244365'
p220
sg7
S'Star Trek: Enterprise'
p221
sa(dp222
g3
F8.5
sg4
F8.6999999999999993
sg5
S'0092455'
p223
sg7
S'Star Trek: The Next Generation'
p224
sa(dp225
g3
F8.4000000000000004
sg4
F7.7000000000000002
sg5
S'0112178'
p226
sg7
S'Star Trek: Voyager'
p227
sa(dp228
g3
F8.9000000000000004
sg4
F8.5
sg5
S'0118480'
p229
sg7
S'Stargate SG-1'
p230
sa(dp231
g3
F8.6999999999999993
sg4
F8.0999999999999996
sg5
S'0374455'
p232
sg7
S'Stargate: Atlantis'
p233
sa(dp234
g3
F8.9000000000000004
sg4
F7.7000000000000002
sg5
S'1286039'
p235
sg7
S'Stargate: Universe'
p236
sa(dp237
g3
F8.9000000000000004
sg4
F8.0999999999999996
sg5
S'0165598'
p238
sg7
S"That '70s Show"
p239
sa(dp240
g3
F7.7999999999999998
sg4
F7.5
sg5
S'0086687'
p241
sg7
S'The Cosby Show'
p242
sa(dp243
g3
F8.3000000000000007
sg4
F7.5
sg5
S'2071645'
p244
sg7
S'The Following'
p245
sa(dp246
g3
F8.5999999999999996
sg4
F8
sg5
S'0098800'
p247
sg7
S'The Fresh Prince of Bel-Air'
p248
sa(dp249
g3
F8.5999999999999996
sg4
F8.0999999999999996
sg5
S'0056757'
p250
sg7
S'The Fugitive'
p251
sa(dp252
g3
F8.5999999999999996
sg4
F8.5999999999999996
sg5
S'0487831'
p253
sg7
S'The IT Crowd'
p254
sa(dp255
g3
F9.0999999999999996
sg4
F8.1999999999999993
sg5
S'1637727'
p256
sg7
S'The Killing'
p257
sa(dp258
g3
F8.5999999999999996
sg4
F7.4000000000000004
sg5
S'0165581'
p259
sg7
S'The King of Queens'
p260
sa(dp261
g3
F6.5999999999999996
sg4
F7.5999999999999996
sg5
S'0330251'
p262
sg7
S'The L Word'
p263
sa(dp264
g3
F9
sg4
F8.5999999999999996
sg5
S'1870479'
p265
sg7
S'The Newsroom'
p266
sa(dp267
g3
F8.9000000000000004
sg4
F8.0999999999999996
sg5
S'1196946'
p268
sg7
S'The Mentalist'
p269
sa(dp270
g3
F9
sg4
F7.5
sg5
S'0362359'
p271
sg7
S'The O.C.'
p272
sa(dp273
g3
F9.4000000000000004
sg4
F8.6999999999999993
sg5
S'0290978'
p274
sg7
S'The Office (UK)'
p275
sa(dp276
g3
F9.6999999999999993
sg4
F8.8000000000000007
sg5
S'0386676'
p277
sg7
S'The Office (US)'
p278
sa(dp279
g3
F8.0999999999999996
sg4
F8.3000000000000007
sg5
S'0374463'
p280
sg7
S'The Pacific'
p281
sa(dp282
g3
F9.1999999999999993
sg4
F8.8000000000000007
sg5
S'0286486'
p283
sg7
S'The Shield'
p284
sa(dp285
g3
F7.0999999999999996
sg4
F9.3000000000000007
sg5
S'0141842'
p286
sg7
S'The Sopranos'
p287
sa(dp288
g3
F9.0999999999999996
sg4
F9.4000000000000004
sg5
S'0306414'
p289
sg7
S'The Wire'
p290
sa(dp291
g3
F8.5
sg4
F8.8000000000000007
sg5
S'0106179'
p292
sg7
S'The X Files'
p293
sa(dp294
g3
F4.5999999999999996
sg4
F7.0999999999999996
sg5
S'0369179'
p295
sg7
S'Two and a Half Men'
p296
sa(dp297
g3
F8.4000000000000004
sg4
F8.4000000000000004
sg5
S'0412253'
p298
sg7
S'Veronica Mars'
p299
sa(dp300
g3
F7.5999999999999996
sg4
F8.0999999999999996
sg5
S'0439100'
p301
sg7
S'Weeds'
p302
sa(dp303
g3
F8.6999999999999993
sg4
F8.3000000000000007
sg5
S'1358522'
p304
sg7
S'White Collar'
p305
sa.